(icreativeit.server.ForageEnvironment
AgentTrace
p0
(dp1
S'initial_step'
p2
I26
sS'actions'
p3
(lp4
(lp5
F0.0
aF0.0
aa(lp6
F0.0
aF0.0
aa(lp7
F0.0
aF0.0
aa(lp8
F0.0
aF0.0
aa(lp9
F0.0
aF0.0
aa(lp10
F0.0
aF0.0
aa(lp11
F0.0
aF0.0
aa(lp12
F0.0
aF0.0
aa(lp13
F0.0
aF0.0
aa(lp14
F0.0
aF0.0
aa(lp15
F0.0
aF0.0
aa(lp16
F0.0
aF0.0
aa(lp17
F0.0
aF0.0
aa(lp18
F0.0
aF0.0
aa(lp19
F0.0
aF0.0
aa(lp20
F0.0
aF0.0
aa(lp21
F0.0
aF0.0
aa(lp22
F0.0
aF0.0
aa(lp23
F0.0
aF0.0
aa(lp24
F0.0
aF0.0
aa(lp25
F0.0
aF0.0
aa(lp26
F0.0
aF0.0
aa(lp27
F0.0
aF0.0
aa(lp28
F0.0
aF0.0
aa(lp29
F0.0
aF0.0
aa(lp30
F0.0
aF0.0
aa(lp31
F0.0
aF0.0
aa(lp32
F0.0
aF0.0
aa(lp33
F0.0
aF0.0
aa(lp34
F0.0
aF0.0
aa(lp35
F0.0
aF0.0
aa(lp36
F0.0
aF0.0
aa(lp37
F0.024500000000000001
aF0.0
aa(lp38
F0.02388995
aF0.0
aa(lp39
F0.023295090245
aF0.0
aa(lp40
F0.022715042497899501
aF0.0
aa(lp41
F0.022149437939701803
aF0.0
aa(lp42
F0.021597916935003229
aF0.0
aa(lp43
F0.02106012880332165
aF0.0
aa(lp44
F0.02053573159611894
aF0.0
aa(lp45
F0.020024391879375578
aF0.0
aa(lp46
F0.019525784521579125
aF0.0
aa(lp47
F0.019039592486991806
aF0.0
aa(lp48
F0.018565506634065709
aF0.0
aa(lp49
F0.018103225518877473
aF0.0
aa(lp50
F0.017652455203457422
aF0.0
aa(lp51
F0.017212909068891332
aF0.0
aa(lp52
F0.016784307633075937
aF0.0
aa(lp53
F0.016366378373012344
aF0.0
aa(lp54
F0.015958855551524338
aF0.0
aa(lp55
F0.015561480048291382
aF0.0
aa(lp56
F0.015173999195088926
aF0.0
aa(lp57
F0.014796166615131211
aF0.0
aa(lp58
F0.014427742066414444
aF0.0
aa(lp59
F0.014068491288960724
aF0.0
aa(lp60
F0.013718185855865603
aF0.0
aa(lp61
F0.013376603028054551
aF0.0
aa(lp62
F0.013043525612655992
aF0.0
aa(lp63
F0.012718741824900858
aF0.0
aa(lp64
F0.012402045153460826
aF0.0
aa(lp65
F0.012093234229139651
aF0.0
aa(lp66
F0.011792112696834074
aF0.0
aa(lp67
F0.035998489090682907
aF0.0
aa(lp68
F0.059602126712324906
aF0.0
aa(lp69
F0.05811803375718802
aF0.0
aa(lp70
F0.056670894716634043
aF0.0
aa(lp71
F0.079759789438189857
aF0.0
aa(lp72
F0.077773770681178939
aF0.0
aa(lp73
F0.10033720379121758
aF0.0
aa(lp74
F0.097838807416816262
aF0.0
aa(lp75
F0.11990262111213754
aF0.0
aa(lp76
F0.11691704584644531
aF0.0
aa(lp77
F0.13850581140486881
aF0.0
aa(lp78
F0.13505701670088757
aF0.0
aa(lp79
F0.15619409698503547
aF0.0
aa(lp80
F0.15230486397010809
aF0.0
aa(lp81
F0.14851247285725239
aF0.0
aa(lp82
F0.16931451228310682
aF0.0
aa(lp83
F0.16509858092725743
aF0.0
aa(lp84
F0.18548762626216875
aF0.0
aa(lp85
F0.18086898436824073
aF0.0
aa(lp86
F0.20086534665747155
aF0.0
aa(lp87
F0.19586379952570052
aF0.0
aa(lp88
F0.21548679091751058
aF0.0
aa(lp89
F0.21012116982366455
aF0.0
aa(lp90
F0.20488915269505531
aF0.0
aa(lp91
F0.22428741279294842
aF0.0
aa(lp92
F0.21870265621440399
aF0.0
aa(lp93
F0.23775696007466532
aF0.0
aa(lp94
F0.23183681176880616
aF0.0
aa(lp95
F0.25056407515576284
aF0.0
aa(lp96
F0.24432502968438435
aF0.0
aa(lp97
F0.26274133644524317
aF0.0
aa(lp98
F0.25619907716775664
aF0.0
aa(lp99
F0.24981972014627951
aF0.0
aa(lp100
F0.26809920911463714
aF0.0
aa(lp101
F0.26142353880768265
aF0.0
aa(lp102
F0.27941409269137135
aF0.0
aa(lp103
F0.27245668178335619
aF0.0
aa(lp104
F0.29017251040695063
aF0.0
aa(lp105
F0.28294721489781754
aF0.0
aa(lp106
F0.30040182924686187
aF0.0
aa(lp107
F0.29292182369861497
aF0.0
aa(lp108
F0.31012807028851946
aF0.0
aa(lp109
F0.30240588133833535
aF0.0
aa(lp110
F0.31937597489301078
aF0.0
aa(lp111
F0.31142351311817479
aF0.0
aa(lp112
F0.30366906764153223
aF0.0
aa(lp113
F0.32060770785725812
aF0.0
aa(lp114
F0.31262457593161241
aF0.0
aa(lp115
F0.32934022399091523
aF0.0
aa(lp116
F0.32113965241354142
aF0.0
aa(lp117
F0.33764327506844422
aF0.0
aa(lp118
F0.32923595751923995
aF0.0
aa(lp119
F0.34553798217701087
aF0.0
aa(lp120
F0.3369340864208033
aF0.0
aa(lp121
F0.3530444276689253
aF0.0
aa(lp122
F0.34425362141996907
aF0.0
aa(lp123
F0.36018170624661183
aF0.0
aa(lp124
F0.35121318176107119
aF0.0
aa(lp125
F0.36696797353522048
aF0.0
aa(lp126
F0.35783047099419352
aF0.0
aa(lp127
F0.34892049226643812
aF0.0
aa(lp128
F0.36473237200900377
aF0.0
aa(lp129
F0.35565053594597956
aF0.0
aa(lp130
F0.37129483760092469
aF0.0
aa(lp131
F0.36204959614466165
aF0.0
aa(lp132
F0.37753456120065959
aF0.0
aa(lp133
F0.36813395062676318
aF0.0
aa(lp134
F0.35896741525615677
aF0.0
aa(lp135
F0.37452912661627846
aF0.0
aa(lp136
F0.36520335136353316
aF0.0
aa(lp137
F0.38060978791458117
aF0.0
aa(lp138
F0.37113260419550809
aF0.0
aa(lp139
F0.38639140235103991
aF0.0
aa(lp140
F0.37677025643249901
aF0.0
aa(lp141
F0.39188867704732977
aF0.0
aa(lp142
F0.3821306489888513
aF0.0
aa(lp143
F0.39711559582902889
aF0.0
aa(lp144
F0.38722741749288603
aF0.0
aa(lp145
F0.40208545479731317
aF0.0
aa(lp146
F0.39207352697286002
aF0.0
aa(lp147
F0.40681089615123578
aF0.0
aa(lp148
F0.39668130483707004
aF0.0
aa(lp149
F0.38680394034662702
aF0.0
aa(lp150
F0.40167252223199595
aF0.0
aa(lp151
F0.39167087642841925
aF0.0
aa(lp152
F0.4064182716053516
aF0.0
aa(lp153
F0.39629845664237834
aF0.0
aa(lp154
F0.41093062507198308
aF0.0
aa(lp155
F0.40069845250769071
aF0.0
aa(lp156
F0.4152210610402492
aF0.0
aa(lp157
F0.40488205662034699
aF0.0
aa(lp158
F0.41930049341050035
aF0.0
aa(lp159
F0.40885991112457887
aF0.0
aa(lp160
F0.42317929933757686
aF0.0
aa(lp161
F0.41264213478407119
aF0.0
aa(lp162
F0.40236734562794785
aF0.0
aa(lp163
F0.41684839872181195
aF0.0
aa(lp164
F0.40646887359363881
aF0.0
aa(lp165
F0.42084779864115718
aF0.0
aa(lp166
F0.41036868845499236
aF0.0
aa(lp167
F0.42465050811246302
aF0.0
aa(lp168
F0.41407671046046268
aF0.0
aa(lp169
F0.42826620036999719
aF0.0
aa(lp170
F0.41760237198078426
aF0.0
aa(lp171
F0.43170407291846274
aF0.0
aa(lp172
F0.42095464150279305
aF0.0
aa(lp173
F0.43497287092937348
aF0.0
aa(lp174
F0.42414204644323206
aF0.0
aa(lp175
F0.43808090948679557
aF0.0
aa(lp176
F0.42717269484057435
aF0.0
aa(lp177
F0.44103609473904404
aF0.0
aa(lp178
F0.43005429598004186
aF0.0
aa(lp179
F0.4193459440101388
aF0.0
aa(lp180
F0.43340423000428635
aF0.0
aa(lp181
F0.42261246467717961
aF0.0
aa(lp182
F0.43658941430671783
aF0.0
aa(lp183
F0.42571833789048052
aF0.0
aa(lp184
F0.43961795127700753
aF0.0
aa(lp185
F0.42867146429021008
aF0.0
aa(lp186
F0.4424975448293838
aF0.0
aa(lp187
F0.43147935596313214
aF0.0
aa(lp188
F0.44523551999965011
aF0.0
aa(lp189
F0.43414915555165878
aF0.0
aa(lp190
F0.44783884157842246
aF0.0
aa(lp191
F0.43668765442311974
aF0.0
aa(lp192
F0.45031413182798402
aF0.0
aa(lp193
F0.4391013099454672
aF0.0
aa(lp194
F0.45266768732782509
aF0.0
aa(lp195
F0.44139626191336223
aF0.0
aa(lp196
F0.43040549499171948
aF0.0
aa(lp197
F0.44418839816642564
aF0.0
aa(lp198
F0.43312810705208166
aF0.0
aa(lp199
F0.44684321718648484
aF0.0
aa(lp200
F0.43571682107854137
aF0.0
aa(lp201
F0.44936747223368567
aF0.0
aa(lp202
F0.43817822217506691
aF0.0
aa(lp203
F0.45176758444290777
aF0.0
aa(lp204
F0.44051857159027935
aF0.0
aa(lp205
F0.4295496591576814
aF0.0
aa(lp206
F0.44335387264465509
aF0.0
aa(lp207
F0.43231436121580313
aF0.0
aa(lp208
F0.44604973362152966
aF0.0
aa(lp209
F0.43494309525435354
aF0.0
aa(lp210
F0.44861301218252014
aF0.0
aa(lp211
F0.43744254817917538
aF0.0
aa(lp212
F0.45105022872951389
aF0.0
aa(lp213
F0.43981907803414899
aF0.0
aa(lp214
F0.45336758299109869
aF0.0
aa(lp215
F0.44207873017462035
aF0.0
aa(lp216
F0.43107096979327231
aF0.0
aa(lp217
F0.44483730264541982
aF0.0
aa(lp218
F0.43376085380954887
aF0.0
aa(lp219
F0.4474602085496911
aF0.0
aa(lp220
F0.43631844935680381
aF0.0
aa(lp221
F0.44995411996781937
aF0.0
aa(lp222
F0.43875026238062065
aF0.0
aa(lp223
F0.45232538084734319
aF0.0
aa(lp224
F0.44106247886424438
aF0.0
aa(lp225
F0.45458002314052465
aF0.0
aa(lp226
F0.44326098056432556
aF0.0
aa(lp227
F0.43222378214827384
aF0.0
aa(lp228
F0.44596140997278183
aF0.0
aa(lp229
F0.43485697086445957
aF0.0
aa(lp230
F0.44852903228993452
aF0.0
aa(lp231
F0.43736065938591512
aF0.0
aa(lp232
F0.45097037896720582
aF0.0
aa(lp233
F0.43974121653092235
aF0.0
aa(lp234
F0.45329166023930234
aF0.0
aa(lp235
F0.44200469789934366
aF0.0
aa(lp236
F0.45549878092165003
aF0.0
aa(lp237
F0.44415686127670095
aF0.0
aa(lp238
F0.45759735543091112
aF0.0
aa(lp239
F0.44620318128068143
aF0.0
aa(lp240
F0.43509272206679245
aF0.0
aa(lp241
F0.44875891328732931
aF0.0
aa(lp242
F0.43758481634647478
aF0.0
aa(lp243
F0.45118895441944756
aF0.0
aa(lp244
F0.43995434945440332
aF0.0
aa(lp245
F0.45349948615298868
aF0.0
aa(lp246
F0.44220734894777924
aF0.0
aa(lp247
F0.43119638595897952
aF0.0
aa(lp248
F0.42045959594860094
aF0.0
aa(lp249
F0.4099901520094808
aF0.0
aa(lp250
F0.39978139722444472
aF0.0
aa(lp251
F0.38982684043355603
aF0.0
aa(lp252
F0.38012015210676048
aF0.0
aa(lp253
F0.37065516031930218
aF0.0
aa(lp254
F0.36142584682735157
aF0.0
aa(lp255
F0.35242634324135047
aF0.0
aa(lp256
F0.34365092729464081
aF0.0
aa(lp257
F0.33509401920500426
aF0.0
aa(lp258
F0.32675017812679963
aF0.0
aa(lp259
F0.3186140986914423
aF0.0
aa(lp260
F0.31068060763402539
aF0.0
aa(lp261
F0.30294466050393815
aF0.0
aa(lp262
F0.29540133845739008
aF0.0
aa(lp263
F0.28804584512980108
aF0.0
aa(lp264
F0.280873503586069
aF0.0
aa(lp265
F0.27387975334677589
aF0.0
aa(lp266
F0.2670601474884412
aF0.0
aa(lp267
F0.26041034981597899
aF0.0
aa(lp268
F0.25392613210556114
aF0.0
aa(lp269
F0.24760337141613264
aF0.0
aa(lp270
F0.24143804746787093
aF0.0
aa(lp271
F0.23542624008592092
aF0.0
aa(lp272
F0.22956412670778148
aF0.0
aa(lp273
F0.22384797995275771
aF0.0
aa(lp274
F0.21827416525193405
aF0.0
aa(lp275
F0.21283913853716088
aF0.0
aa(lp276
F0.20753944398758556
aF0.0
aa(lp277
F0.20237171183229466
aF0.0
aa(lp278
F0.19733265620767051
aF0.0
aa(lp279
F0.19241907306809952
aF0.0
aa(lp280
F0.18762783814870385
aF0.0
aa(lp281
F0.18295590497880113
aF0.0
aa(lp282
F0.17840030294482898
aF0.0
aa(lp283
F0.17395813540150273
aF0.0
aa(lp284
F0.16962657783000532
aF0.0
aa(lp285
F0.16540287604203818
aF0.0
aa(lp286
F0.16128434442859144
aF0.0
aa(lp287
F0.15726836425231949
aF0.0
aa(lp288
F0.15335238198243673
aF0.0
aa(lp289
F0.14953390767107405
aF0.0
aa(lp290
F0.14581051337006432
aF0.0
aa(lp291
F0.1421798315871497
aF0.0
aa(lp292
F0.13863955378062967
aF0.0
aa(lp293
F0.13518742889149199
aF0.0
aa(lp294
F0.13182126191209384
aF0.0
aa(lp295
F0.12853891249048269
aF0.0
aa(lp296
F0.12533829356946966
aF0.0
aa(lp297
F0.12221737005958987
aF0.0
aa(lp298
F0.11917415754510607
aF0.0
aa(lp299
F0.11620672102223292
aF0.0
aa(lp300
F0.11331317366877933
aF0.0
aa(lp301
F0.11049167564442672
aF0.0
aa(lp302
F0.10774043292088048
aF0.0
aa(lp303
F0.10505769614115056
aF0.0
aa(lp304
F0.1024417595072359
aF0.0
aa(lp305
F0.099890959695505724
aF0.0
aa(lp306
F0.097403674799087625
aF0.0
aa(lp307
F0.094978323296590339
aF0.0
aa(lp308
F0.092613363046505234
aF0.0
aa(lp309
F0.090307290306647248
aF0.0
aa(lp310
F0.088058638778011733
aF0.0
aa(lp311
F0.085865978672439239
aF0.0
aa(lp312
F0.083727915803495506
aF0.0
aa(lp313
F0.081643090699988471
aF0.0
aa(lp314
F0.079610177741558763
aF0.0
aa(lp315
F0.077627884315793941
aF0.0
aa(lp316
F0.075694949996330668
aF0.0
aa(lp317
F0.073810145741422042
aF0.0
aa(lp318
F0.071972273112460641
aF0.0
aa(lp319
F0.070180163511960367
aF0.0
aa(lp320
F0.068432677440512554
aF0.0
aa(lp321
F0.066728703772243783
aF0.0
aa(lp322
F0.065067159048314921
aF0.0
aa(lp323
F0.063446986788011875
aF0.0
aa(lp324
F0.061867156816990371
aF0.0
aa(lp325
F0.06032666461224731
aF0.0
aa(lp326
F0.058824530663402347
aF0.0
aa(lp327
F0.057359799849883625
aF0.0
aa(lp328
F0.055931540833621521
aF0.0
aa(lp329
F0.054538845466864341
aF0.0
aa(lp330
F0.05318082821473942
aF0.0
aa(lp331
F0.051856625592192403
aF0.0
aa(lp332
F0.050565395614946815
aF0.0
aa(lp333
F0.049306317264134633
aF0.0
aa(lp334
F0.048078589964257679
aF0.0
aa(lp335
F0.04688143307414766
aF0.0
aa(lp336
F0.045714085390601386
aF0.0
aa(lp337
F0.044575804664375412
aF0.0
aa(lp338
F0.043465867128232465
aF0.0
aa(lp339
F0.042383567036739477
aF0.0
aa(lp340
F0.041328216217524659
aF0.0
aa(lp341
F0.040299143633708297
aF0.0
aa(lp342
F0.039295694957228962
aF0.0
aa(lp343
F0.038317232152793958
aF0.0
aa(lp344
F0.037363133072189386
aF0.0
aa(lp345
F0.03643279105869187
aF0.0
aa(lp346
F0.035525614561330437
aF0.0
aa(lp347
F0.034641026758753315
aF0.0
aa(lp348
F0.033778465192460361
aF0.0
aa(lp349
F0.032937381409168097
aF0.0
aa(lp350
F0.032117240612079816
aF0.0
aa(lp351
F0.03131752132083903
aF0.0
aa(lp352
F0.03053771503995014
aF0.0
aa(lp353
F0.02977732593545538
aF0.0
aa(lp354
F0.029035870519662541
aF0.0
aa(lp355
F0.028312877343722943
aF0.0
aa(lp356
F0.02760788669786424
aF0.0
aa(lp357
F0.026920450319087422
aF0.0
aa(lp358
F0.026250131106142147
aF0.0
aa(lp359
F0.025596502841599204
aF0.0
aa(lp360
F0.024959149920843384
aF0.0
aa(lp361
F0.024337667087814385
aF0.0
aa(lp362
F0.023731659177327807
aF0.0
aa(lp363
F0.023140740863812344
aF0.0
aa(lp364
F0.022564536416303415
aF0.0
aa(lp365
F0.022002679459537457
aF0.0
aa(lp366
F0.021454812740994974
aF0.0
aa(lp367
F0.020920587903744198
aF0.0
aa(lp368
F0.020399665264940966
aF0.0
aa(lp369
F0.019891713599843933
aF0.0
aa(lp370
F0.019396409931207819
aF0.0
aa(lp371
F0.018913439323920745
aF0.0
aa(lp372
F0.018442494684755117
aF0.0
aa(lp373
F0.017983276567104713
aF0.0
aa(lp374
F0.017535492980583805
aF0.0
aa(lp375
F0.017098859205367266
aF0.0
aa(lp376
F0.016673097611153619
aF0.0
aa(lp377
F0.016257937480635892
aF0.0
aa(lp378
F0.015853114837368058
aF0.0
aa(lp379
F0.015458372277917595
aF0.0
aa(lp380
F0.015073458808197446
aF0.0
aa(lp381
F0.014698129683873329
aF0.0
aa(lp382
F0.014332146254744884
aF0.0
aa(lp383
F0.013975275813001736
aF0.0
aa(lp384
F0.013627291445257993
aF0.0
aa(lp385
F0.013287971888271069
aF0.0
aa(lp386
F0.012957101388253119
aF0.0
aa(lp387
F0.012634469563685616
aF0.0
aa(lp388
F0.012319871271549843
aF0.0
aa(lp389
F0.012013106476888252
aF0.0
aa(lp390
F0.011713980125613734
aF0.0
aa(lp391
F0.011422302020485952
aF0.0
aa(lp392
F0.011137886700175853
aF0.0
aa(lp393
F0.010860553321341474
aF0.0
aa(lp394
F0.010590125543640071
aF0.0
aasS'velocity'
p395
(lp396
cOpenNero
Vector3f
p397
(F0.0
F0.0
F0.0
tp398
Rp399
((dp400
F0.0
F0.0
F0.0
tp401
bag397
(F0.0
F0.0
F0.0
tp402
Rp403
((dp404
F0.0
F0.0
F0.0
tp405
bag397
(F0.0
F0.0
F0.0
tp406
Rp407
((dp408
F0.0
F0.0
F0.0
tp409
bag397
(F0.0
F0.0
F0.0
tp410
Rp411
((dp412
F0.0
F0.0
F0.0
tp413
bag397
(F0.0
F0.0
F0.0
tp414
Rp415
((dp416
F0.0
F0.0
F0.0
tp417
bag397
(F0.0
F0.0
F0.0
tp418
Rp419
((dp420
F0.0
F0.0
F0.0
tp421
bag397
(F0.0
F0.0
F0.0
tp422
Rp423
((dp424
F0.0
F0.0
F0.0
tp425
bag397
(F0.0
F0.0
F0.0
tp426
Rp427
((dp428
F0.0
F0.0
F0.0
tp429
bag397
(F0.0
F0.0
F0.0
tp430
Rp431
((dp432
F0.0
F0.0
F0.0
tp433
bag397
(F0.0
F0.0
F0.0
tp434
Rp435
((dp436
F0.0
F0.0
F0.0
tp437
bag397
(F0.0
F0.0
F0.0
tp438
Rp439
((dp440
F0.0
F0.0
F0.0
tp441
bag397
(F0.0
F0.0
F0.0
tp442
Rp443
((dp444
F0.0
F0.0
F0.0
tp445
bag397
(F0.0
F0.0
F0.0
tp446
Rp447
((dp448
F0.0
F0.0
F0.0
tp449
bag397
(F0.0
F0.0
F0.0
tp450
Rp451
((dp452
F0.0
F0.0
F0.0
tp453
bag397
(F0.0
F0.0
F0.0
tp454
Rp455
((dp456
F0.0
F0.0
F0.0
tp457
bag397
(F0.0
F0.0
F0.0
tp458
Rp459
((dp460
F0.0
F0.0
F0.0
tp461
bag397
(F0.0
F0.0
F0.0
tp462
Rp463
((dp464
F0.0
F0.0
F0.0
tp465
bag397
(F0.0
F0.0
F0.0
tp466
Rp467
((dp468
F0.0
F0.0
F0.0
tp469
bag397
(F0.0
F0.0
F0.0
tp470
Rp471
((dp472
F0.0
F0.0
F0.0
tp473
bag397
(F0.0
F0.0
F0.0
tp474
Rp475
((dp476
F0.0
F0.0
F0.0
tp477
bag397
(F0.0
F0.0
F0.0
tp478
Rp479
((dp480
F0.0
F0.0
F0.0
tp481
bag397
(F0.0
F0.0
F0.0
tp482
Rp483
((dp484
F0.0
F0.0
F0.0
tp485
bag397
(F0.0
F0.0
F0.0
tp486
Rp487
((dp488
F0.0
F0.0
F0.0
tp489
bag397
(F0.0
F0.0
F0.0
tp490
Rp491
((dp492
F0.0
F0.0
F0.0
tp493
bag397
(F0.0
F0.0
F0.0
tp494
Rp495
((dp496
F0.0
F0.0
F0.0
tp497
bag397
(F0.0
F0.0
F0.0
tp498
Rp499
((dp500
F0.0
F0.0
F0.0
tp501
bag397
(F0.0
F0.0
F0.0
tp502
Rp503
((dp504
F0.0
F0.0
F0.0
tp505
bag397
(F0.0
F0.0
F0.0
tp506
Rp507
((dp508
F0.0
F0.0
F0.0
tp509
bag397
(F0.0
F0.0
F0.0
tp510
Rp511
((dp512
F0.0
F0.0
F0.0
tp513
bag397
(F0.0
F0.0
F0.0
tp514
Rp515
((dp516
F0.0
F0.0
F0.0
tp517
bag397
(F0.0
F0.0
F0.0
tp518
Rp519
((dp520
F0.0
F0.0
F0.0
tp521
bag397
(F0.0
F0.0
F0.0
tp522
Rp523
((dp524
F0.0
F0.0
F0.0
tp525
bag397
(F0.0
F0.0
F0.0
tp526
Rp527
((dp528
F0.0
F0.0
F0.0
tp529
bag397
(F0.0
F0.0
F0.0
tp530
Rp531
((dp532
F0.0
F0.0
F0.0
tp533
bag397
(F0.0
F0.0
F0.0
tp534
Rp535
((dp536
F0.0
F0.0
F0.0
tp537
bag397
(F0.0
F0.0
F0.0
tp538
Rp539
((dp540
F0.0
F0.0
F0.0
tp541
bag397
(F0.0
F0.0
F0.0
tp542
Rp543
((dp544
F0.0
F0.0
F0.0
tp545
bag397
(F0.0
F0.0
F0.0
tp546
Rp547
((dp548
F0.0
F0.0
F0.0
tp549
bag397
(F0.0
F0.0
F0.0
tp550
Rp551
((dp552
F0.0
F0.0
F0.0
tp553
bag397
(F0.0
F0.0
F0.0
tp554
Rp555
((dp556
F0.0
F0.0
F0.0
tp557
bag397
(F0.0
F0.0
F0.0
tp558
Rp559
((dp560
F0.0
F0.0
F0.0
tp561
bag397
(F0.0
F0.0
F0.0
tp562
Rp563
((dp564
F0.0
F0.0
F0.0
tp565
bag397
(F0.0
F0.0
F0.0
tp566
Rp567
((dp568
F0.0
F0.0
F0.0
tp569
bag397
(F0.0
F0.0
F0.0
tp570
Rp571
((dp572
F0.0
F0.0
F0.0
tp573
bag397
(F0.0
F0.0
F0.0
tp574
Rp575
((dp576
F0.0
F0.0
F0.0
tp577
bag397
(F0.0
F0.0
F0.0
tp578
Rp579
((dp580
F0.0
F0.0
F0.0
tp581
bag397
(F0.0
F0.0
F0.0
tp582
Rp583
((dp584
F0.0
F0.0
F0.0
tp585
bag397
(F0.0
F0.0
F0.0
tp586
Rp587
((dp588
F0.0
F0.0
F0.0
tp589
bag397
(F0.0
F0.0
F0.0
tp590
Rp591
((dp592
F0.0
F0.0
F0.0
tp593
bag397
(F0.0
F0.0
F0.0
tp594
Rp595
((dp596
F0.0
F0.0
F0.0
tp597
bag397
(F0.0
F0.0
F0.0
tp598
Rp599
((dp600
F0.0
F0.0
F0.0
tp601
bag397
(F0.0
F0.0
F0.0
tp602
Rp603
((dp604
F0.0
F0.0
F0.0
tp605
bag397
(F0.0
F0.0
F0.0
tp606
Rp607
((dp608
F0.0
F0.0
F0.0
tp609
bag397
(F0.0
F0.0
F0.0
tp610
Rp611
((dp612
F0.0
F0.0
F0.0
tp613
bag397
(F0.0
F0.0
F0.0
tp614
Rp615
((dp616
F0.0
F0.0
F0.0
tp617
bag397
(F0.0
F0.0
F0.0
tp618
Rp619
((dp620
F0.0
F0.0
F0.0
tp621
bag397
(F0.0
F0.0
F0.0
tp622
Rp623
((dp624
F0.0
F0.0
F0.0
tp625
bag397
(F0.0
F0.0
F0.0
tp626
Rp627
((dp628
F0.0
F0.0
F0.0
tp629
bag397
(F0.0
F0.0
F0.0
tp630
Rp631
((dp632
F0.0
F0.0
F0.0
tp633
bag397
(F0.0
F0.0
F0.0
tp634
Rp635
((dp636
F0.0
F0.0
F0.0
tp637
bag397
(F0.0
F0.0
F0.0
tp638
Rp639
((dp640
F0.0
F0.0
F0.0
tp641
bag397
(F0.0
F0.0
F0.0
tp642
Rp643
((dp644
F0.0
F0.0
F0.0
tp645
bag397
(F0.0
F0.0
F0.0
tp646
Rp647
((dp648
F0.0
F0.0
F0.0
tp649
bag397
(F0.0
F0.0
F0.0
tp650
Rp651
((dp652
F0.0
F0.0
F0.0
tp653
bag397
(F0.0
F0.0
F0.0
tp654
Rp655
((dp656
F0.0
F0.0
F0.0
tp657
bag397
(F0.0
F0.0
F0.0
tp658
Rp659
((dp660
F0.0
F0.0
F0.0
tp661
bag397
(F0.0
F0.0
F0.0
tp662
Rp663
((dp664
F0.0
F0.0
F0.0
tp665
bag397
(F0.0
F0.0
F0.0
tp666
Rp667
((dp668
F0.0
F0.0
F0.0
tp669
bag397
(F0.0
F0.0
F0.0
tp670
Rp671
((dp672
F0.0
F0.0
F0.0
tp673
bag397
(F0.0
F0.0
F0.0
tp674
Rp675
((dp676
F0.0
F0.0
F0.0
tp677
bag397
(F0.0
F0.0
F0.0
tp678
Rp679
((dp680
F0.0
F0.0
F0.0
tp681
bag397
(F0.0
F0.0
F0.0
tp682
Rp683
((dp684
F0.0
F0.0
F0.0
tp685
bag397
(F0.0
F0.0
F0.0
tp686
Rp687
((dp688
F0.0
F0.0
F0.0
tp689
bag397
(F0.0
F0.0
F0.0
tp690
Rp691
((dp692
F0.0
F0.0
F0.0
tp693
bag397
(F0.0
F0.0
F0.0
tp694
Rp695
((dp696
F0.0
F0.0
F0.0
tp697
bag397
(F0.0
F0.0
F0.0
tp698
Rp699
((dp700
F0.0
F0.0
F0.0
tp701
bag397
(F0.0
F0.0
F0.0
tp702
Rp703
((dp704
F0.0
F0.0
F0.0
tp705
bag397
(F0.0
F0.0
F0.0
tp706
Rp707
((dp708
F0.0
F0.0
F0.0
tp709
bag397
(F0.0
F0.0
F0.0
tp710
Rp711
((dp712
F0.0
F0.0
F0.0
tp713
bag397
(F0.0
F0.0
F0.0
tp714
Rp715
((dp716
F0.0
F0.0
F0.0
tp717
bag397
(F0.0
F0.0
F0.0
tp718
Rp719
((dp720
F0.0
F0.0
F0.0
tp721
bag397
(F0.0
F0.0
F0.0
tp722
Rp723
((dp724
F0.0
F0.0
F0.0
tp725
bag397
(F0.0
F0.0
F0.0
tp726
Rp727
((dp728
F0.0
F0.0
F0.0
tp729
bag397
(F0.0
F0.0
F0.0
tp730
Rp731
((dp732
F0.0
F0.0
F0.0
tp733
bag397
(F0.0
F0.0
F0.0
tp734
Rp735
((dp736
F0.0
F0.0
F0.0
tp737
bag397
(F0.0
F0.0
F0.0
tp738
Rp739
((dp740
F0.0
F0.0
F0.0
tp741
bag397
(F0.0
F0.0
F0.0
tp742
Rp743
((dp744
F0.0
F0.0
F0.0
tp745
bag397
(F0.0
F0.0
F0.0
tp746
Rp747
((dp748
F0.0
F0.0
F0.0
tp749
bag397
(F0.0
F0.0
F0.0
tp750
Rp751
((dp752
F0.0
F0.0
F0.0
tp753
bag397
(F0.0
F0.0
F0.0
tp754
Rp755
((dp756
F0.0
F0.0
F0.0
tp757
bag397
(F0.0
F0.0
F0.0
tp758
Rp759
((dp760
F0.0
F0.0
F0.0
tp761
bag397
(F0.0
F0.0
F0.0
tp762
Rp763
((dp764
F0.0
F0.0
F0.0
tp765
bag397
(F0.0
F0.0
F0.0
tp766
Rp767
((dp768
F0.0
F0.0
F0.0
tp769
bag397
(F0.0
F0.0
F0.0
tp770
Rp771
((dp772
F0.0
F0.0
F0.0
tp773
bag397
(F0.0
F0.0
F0.0
tp774
Rp775
((dp776
F0.0
F0.0
F0.0
tp777
bag397
(F0.0
F0.0
F0.0
tp778
Rp779
((dp780
F0.0
F0.0
F0.0
tp781
bag397
(F0.0
F0.0
F0.0
tp782
Rp783
((dp784
F0.0
F0.0
F0.0
tp785
bag397
(F0.0
F0.0
F0.0
tp786
Rp787
((dp788
F0.0
F0.0
F0.0
tp789
bag397
(F0.0
F0.0
F0.0
tp790
Rp791
((dp792
F0.0
F0.0
F0.0
tp793
bag397
(F0.0
F0.0
F0.0
tp794
Rp795
((dp796
F0.0
F0.0
F0.0
tp797
bag397
(F0.0
F0.0
F0.0
tp798
Rp799
((dp800
F0.0
F0.0
F0.0
tp801
bag397
(F0.0
F0.0
F0.0
tp802
Rp803
((dp804
F0.0
F0.0
F0.0
tp805
bag397
(F0.0
F0.0
F0.0
tp806
Rp807
((dp808
F0.0
F0.0
F0.0
tp809
bag397
(F0.0
F0.0
F0.0
tp810
Rp811
((dp812
F0.0
F0.0
F0.0
tp813
bag397
(F0.0
F0.0
F0.0
tp814
Rp815
((dp816
F0.0
F0.0
F0.0
tp817
bag397
(F0.0
F0.0
F0.0
tp818
Rp819
((dp820
F0.0
F0.0
F0.0
tp821
bag397
(F0.0
F0.0
F0.0
tp822
Rp823
((dp824
F0.0
F0.0
F0.0
tp825
bag397
(F0.0
F0.0
F0.0
tp826
Rp827
((dp828
F0.0
F0.0
F0.0
tp829
bag397
(F0.0
F0.0
F0.0
tp830
Rp831
((dp832
F0.0
F0.0
F0.0
tp833
bag397
(F0.0
F0.0
F0.0
tp834
Rp835
((dp836
F0.0
F0.0
F0.0
tp837
bag397
(F0.0
F0.0
F0.0
tp838
Rp839
((dp840
F0.0
F0.0
F0.0
tp841
bag397
(F0.0
F0.0
F0.0
tp842
Rp843
((dp844
F0.0
F0.0
F0.0
tp845
bag397
(F0.0
F0.0
F0.0
tp846
Rp847
((dp848
F0.0
F0.0
F0.0
tp849
bag397
(F0.0
F0.0
F0.0
tp850
Rp851
((dp852
F0.0
F0.0
F0.0
tp853
bag397
(F0.0
F0.0
F0.0
tp854
Rp855
((dp856
F0.0
F0.0
F0.0
tp857
bag397
(F0.0
F0.0
F0.0
tp858
Rp859
((dp860
F0.0
F0.0
F0.0
tp861
bag397
(F0.0
F0.0
F0.0
tp862
Rp863
((dp864
F0.0
F0.0
F0.0
tp865
bag397
(F0.0
F0.0
F0.0
tp866
Rp867
((dp868
F0.0
F0.0
F0.0
tp869
bag397
(F0.0
F0.0
F0.0
tp870
Rp871
((dp872
F0.0
F0.0
F0.0
tp873
bag397
(F0.0
F0.0
F0.0
tp874
Rp875
((dp876
F0.0
F0.0
F0.0
tp877
bag397
(F0.0
F0.0
F0.0
tp878
Rp879
((dp880
F0.0
F0.0
F0.0
tp881
bag397
(F0.0
F0.0
F0.0
tp882
Rp883
((dp884
F0.0
F0.0
F0.0
tp885
bag397
(F0.0
F0.0
F0.0
tp886
Rp887
((dp888
F0.0
F0.0
F0.0
tp889
bag397
(F0.0
F0.0
F0.0
tp890
Rp891
((dp892
F0.0
F0.0
F0.0
tp893
bag397
(F0.0
F0.0
F0.0
tp894
Rp895
((dp896
F0.0
F0.0
F0.0
tp897
bag397
(F0.0
F0.0
F0.0
tp898
Rp899
((dp900
F0.0
F0.0
F0.0
tp901
bag397
(F0.0
F0.0
F0.0
tp902
Rp903
((dp904
F0.0
F0.0
F0.0
tp905
bag397
(F0.0
F0.0
F0.0
tp906
Rp907
((dp908
F0.0
F0.0
F0.0
tp909
bag397
(F0.0
F0.0
F0.0
tp910
Rp911
((dp912
F0.0
F0.0
F0.0
tp913
bag397
(F0.0
F0.0
F0.0
tp914
Rp915
((dp916
F0.0
F0.0
F0.0
tp917
bag397
(F0.0
F0.0
F0.0
tp918
Rp919
((dp920
F0.0
F0.0
F0.0
tp921
bag397
(F0.0
F0.0
F0.0
tp922
Rp923
((dp924
F0.0
F0.0
F0.0
tp925
bag397
(F0.0
F0.0
F0.0
tp926
Rp927
((dp928
F0.0
F0.0
F0.0
tp929
bag397
(F0.0
F0.0
F0.0
tp930
Rp931
((dp932
F0.0
F0.0
F0.0
tp933
bag397
(F0.0
F0.0
F0.0
tp934
Rp935
((dp936
F0.0
F0.0
F0.0
tp937
bag397
(F0.0
F0.0
F0.0
tp938
Rp939
((dp940
F0.0
F0.0
F0.0
tp941
bag397
(F0.0
F0.0
F0.0
tp942
Rp943
((dp944
F0.0
F0.0
F0.0
tp945
bag397
(F0.0
F0.0
F0.0
tp946
Rp947
((dp948
F0.0
F0.0
F0.0
tp949
bag397
(F0.0
F0.0
F0.0
tp950
Rp951
((dp952
F0.0
F0.0
F0.0
tp953
bag397
(F0.0
F0.0
F0.0
tp954
Rp955
((dp956
F0.0
F0.0
F0.0
tp957
bag397
(F0.0
F0.0
F0.0
tp958
Rp959
((dp960
F0.0
F0.0
F0.0
tp961
bag397
(F0.0
F0.0
F0.0
tp962
Rp963
((dp964
F0.0
F0.0
F0.0
tp965
bag397
(F0.0
F0.0
F0.0
tp966
Rp967
((dp968
F0.0
F0.0
F0.0
tp969
bag397
(F0.0
F0.0
F0.0
tp970
Rp971
((dp972
F0.0
F0.0
F0.0
tp973
bag397
(F0.0
F0.0
F0.0
tp974
Rp975
((dp976
F0.0
F0.0
F0.0
tp977
bag397
(F0.0
F0.0
F0.0
tp978
Rp979
((dp980
F0.0
F0.0
F0.0
tp981
bag397
(F0.0
F0.0
F0.0
tp982
Rp983
((dp984
F0.0
F0.0
F0.0
tp985
bag397
(F0.0
F0.0
F0.0
tp986
Rp987
((dp988
F0.0
F0.0
F0.0
tp989
bag397
(F0.0
F0.0
F0.0
tp990
Rp991
((dp992
F0.0
F0.0
F0.0
tp993
bag397
(F0.0
F0.0
F0.0
tp994
Rp995
((dp996
F0.0
F0.0
F0.0
tp997
bag397
(F0.0
F0.0
F0.0
tp998
Rp999
((dp1000
F0.0
F0.0
F0.0
tp1001
bag397
(F0.0
F0.0
F0.0
tp1002
Rp1003
((dp1004
F0.0
F0.0
F0.0
tp1005
bag397
(F0.0
F0.0
F0.0
tp1006
Rp1007
((dp1008
F0.0
F0.0
F0.0
tp1009
bag397
(F0.0
F0.0
F0.0
tp1010
Rp1011
((dp1012
F0.0
F0.0
F0.0
tp1013
bag397
(F0.0
F0.0
F0.0
tp1014
Rp1015
((dp1016
F0.0
F0.0
F0.0
tp1017
bag397
(F0.0
F0.0
F0.0
tp1018
Rp1019
((dp1020
F0.0
F0.0
F0.0
tp1021
bag397
(F0.0
F0.0
F0.0
tp1022
Rp1023
((dp1024
F0.0
F0.0
F0.0
tp1025
bag397
(F0.0
F0.0
F0.0
tp1026
Rp1027
((dp1028
F0.0
F0.0
F0.0
tp1029
bag397
(F0.0
F0.0
F0.0
tp1030
Rp1031
((dp1032
F0.0
F0.0
F0.0
tp1033
bag397
(F0.0
F0.0
F0.0
tp1034
Rp1035
((dp1036
F0.0
F0.0
F0.0
tp1037
bag397
(F0.0
F0.0
F0.0
tp1038
Rp1039
((dp1040
F0.0
F0.0
F0.0
tp1041
bag397
(F0.0
F0.0
F0.0
tp1042
Rp1043
((dp1044
F0.0
F0.0
F0.0
tp1045
bag397
(F0.0
F0.0
F0.0
tp1046
Rp1047
((dp1048
F0.0
F0.0
F0.0
tp1049
bag397
(F0.0
F0.0
F0.0
tp1050
Rp1051
((dp1052
F0.0
F0.0
F0.0
tp1053
bag397
(F0.0
F0.0
F0.0
tp1054
Rp1055
((dp1056
F0.0
F0.0
F0.0
tp1057
bag397
(F0.0
F0.0
F0.0
tp1058
Rp1059
((dp1060
F0.0
F0.0
F0.0
tp1061
bag397
(F0.0
F0.0
F0.0
tp1062
Rp1063
((dp1064
F0.0
F0.0
F0.0
tp1065
bag397
(F0.0
F0.0
F0.0
tp1066
Rp1067
((dp1068
F0.0
F0.0
F0.0
tp1069
bag397
(F0.0
F0.0
F0.0
tp1070
Rp1071
((dp1072
F0.0
F0.0
F0.0
tp1073
bag397
(F0.0
F0.0
F0.0
tp1074
Rp1075
((dp1076
F0.0
F0.0
F0.0
tp1077
bag397
(F0.0
F0.0
F0.0
tp1078
Rp1079
((dp1080
F0.0
F0.0
F0.0
tp1081
bag397
(F0.0
F0.0
F0.0
tp1082
Rp1083
((dp1084
F0.0
F0.0
F0.0
tp1085
bag397
(F0.0
F0.0
F0.0
tp1086
Rp1087
((dp1088
F0.0
F0.0
F0.0
tp1089
bag397
(F0.0
F0.0
F0.0
tp1090
Rp1091
((dp1092
F0.0
F0.0
F0.0
tp1093
bag397
(F0.0
F0.0
F0.0
tp1094
Rp1095
((dp1096
F0.0
F0.0
F0.0
tp1097
bag397
(F0.0
F0.0
F0.0
tp1098
Rp1099
((dp1100
F0.0
F0.0
F0.0
tp1101
bag397
(F0.0
F0.0
F0.0
tp1102
Rp1103
((dp1104
F0.0
F0.0
F0.0
tp1105
bag397
(F0.0
F0.0
F0.0
tp1106
Rp1107
((dp1108
F0.0
F0.0
F0.0
tp1109
bag397
(F0.0
F0.0
F0.0
tp1110
Rp1111
((dp1112
F0.0
F0.0
F0.0
tp1113
bag397
(F0.0
F0.0
F0.0
tp1114
Rp1115
((dp1116
F0.0
F0.0
F0.0
tp1117
bag397
(F0.0
F0.0
F0.0
tp1118
Rp1119
((dp1120
F0.0
F0.0
F0.0
tp1121
bag397
(F0.0
F0.0
F0.0
tp1122
Rp1123
((dp1124
F0.0
F0.0
F0.0
tp1125
bag397
(F0.0
F0.0
F0.0
tp1126
Rp1127
((dp1128
F0.0
F0.0
F0.0
tp1129
bag397
(F0.0
F0.0
F0.0
tp1130
Rp1131
((dp1132
F0.0
F0.0
F0.0
tp1133
bag397
(F0.0
F0.0
F0.0
tp1134
Rp1135
((dp1136
F0.0
F0.0
F0.0
tp1137
bag397
(F0.0
F0.0
F0.0
tp1138
Rp1139
((dp1140
F0.0
F0.0
F0.0
tp1141
bag397
(F0.0
F0.0
F0.0
tp1142
Rp1143
((dp1144
F0.0
F0.0
F0.0
tp1145
bag397
(F0.0
F0.0
F0.0
tp1146
Rp1147
((dp1148
F0.0
F0.0
F0.0
tp1149
bag397
(F0.0
F0.0
F0.0
tp1150
Rp1151
((dp1152
F0.0
F0.0
F0.0
tp1153
bag397
(F0.0
F0.0
F0.0
tp1154
Rp1155
((dp1156
F0.0
F0.0
F0.0
tp1157
bag397
(F0.0
F0.0
F0.0
tp1158
Rp1159
((dp1160
F0.0
F0.0
F0.0
tp1161
bag397
(F0.0
F0.0
F0.0
tp1162
Rp1163
((dp1164
F0.0
F0.0
F0.0
tp1165
bag397
(F0.0
F0.0
F0.0
tp1166
Rp1167
((dp1168
F0.0
F0.0
F0.0
tp1169
bag397
(F0.0
F0.0
F0.0
tp1170
Rp1171
((dp1172
F0.0
F0.0
F0.0
tp1173
bag397
(F0.0
F0.0
F0.0
tp1174
Rp1175
((dp1176
F0.0
F0.0
F0.0
tp1177
bag397
(F0.0
F0.0
F0.0
tp1178
Rp1179
((dp1180
F0.0
F0.0
F0.0
tp1181
bag397
(F0.0
F0.0
F0.0
tp1182
Rp1183
((dp1184
F0.0
F0.0
F0.0
tp1185
bag397
(F0.0
F0.0
F0.0
tp1186
Rp1187
((dp1188
F0.0
F0.0
F0.0
tp1189
bag397
(F0.0
F0.0
F0.0
tp1190
Rp1191
((dp1192
F0.0
F0.0
F0.0
tp1193
bag397
(F0.0
F0.0
F0.0
tp1194
Rp1195
((dp1196
F0.0
F0.0
F0.0
tp1197
bag397
(F0.0
F0.0
F0.0
tp1198
Rp1199
((dp1200
F0.0
F0.0
F0.0
tp1201
bag397
(F0.0
F0.0
F0.0
tp1202
Rp1203
((dp1204
F0.0
F0.0
F0.0
tp1205
bag397
(F0.0
F0.0
F0.0
tp1206
Rp1207
((dp1208
F0.0
F0.0
F0.0
tp1209
bag397
(F0.0
F0.0
F0.0
tp1210
Rp1211
((dp1212
F0.0
F0.0
F0.0
tp1213
bag397
(F0.0
F0.0
F0.0
tp1214
Rp1215
((dp1216
F0.0
F0.0
F0.0
tp1217
bag397
(F0.0
F0.0
F0.0
tp1218
Rp1219
((dp1220
F0.0
F0.0
F0.0
tp1221
bag397
(F0.0
F0.0
F0.0
tp1222
Rp1223
((dp1224
F0.0
F0.0
F0.0
tp1225
bag397
(F0.0
F0.0
F0.0
tp1226
Rp1227
((dp1228
F0.0
F0.0
F0.0
tp1229
bag397
(F0.0
F0.0
F0.0
tp1230
Rp1231
((dp1232
F0.0
F0.0
F0.0
tp1233
bag397
(F0.0
F0.0
F0.0
tp1234
Rp1235
((dp1236
F0.0
F0.0
F0.0
tp1237
bag397
(F0.0
F0.0
F0.0
tp1238
Rp1239
((dp1240
F0.0
F0.0
F0.0
tp1241
bag397
(F0.0
F0.0
F0.0
tp1242
Rp1243
((dp1244
F0.0
F0.0
F0.0
tp1245
bag397
(F0.0
F0.0
F0.0
tp1246
Rp1247
((dp1248
F0.0
F0.0
F0.0
tp1249
bag397
(F0.0
F0.0
F0.0
tp1250
Rp1251
((dp1252
F0.0
F0.0
F0.0
tp1253
bag397
(F0.0
F0.0
F0.0
tp1254
Rp1255
((dp1256
F0.0
F0.0
F0.0
tp1257
bag397
(F0.0
F0.0
F0.0
tp1258
Rp1259
((dp1260
F0.0
F0.0
F0.0
tp1261
bag397
(F0.0
F0.0
F0.0
tp1262
Rp1263
((dp1264
F0.0
F0.0
F0.0
tp1265
bag397
(F0.0
F0.0
F0.0
tp1266
Rp1267
((dp1268
F0.0
F0.0
F0.0
tp1269
bag397
(F0.0
F0.0
F0.0
tp1270
Rp1271
((dp1272
F0.0
F0.0
F0.0
tp1273
bag397
(F0.0
F0.0
F0.0
tp1274
Rp1275
((dp1276
F0.0
F0.0
F0.0
tp1277
bag397
(F0.0
F0.0
F0.0
tp1278
Rp1279
((dp1280
F0.0
F0.0
F0.0
tp1281
bag397
(F0.0
F0.0
F0.0
tp1282
Rp1283
((dp1284
F0.0
F0.0
F0.0
tp1285
bag397
(F0.0
F0.0
F0.0
tp1286
Rp1287
((dp1288
F0.0
F0.0
F0.0
tp1289
bag397
(F0.0
F0.0
F0.0
tp1290
Rp1291
((dp1292
F0.0
F0.0
F0.0
tp1293
bag397
(F0.0
F0.0
F0.0
tp1294
Rp1295
((dp1296
F0.0
F0.0
F0.0
tp1297
bag397
(F0.0
F0.0
F0.0
tp1298
Rp1299
((dp1300
F0.0
F0.0
F0.0
tp1301
bag397
(F0.0
F0.0
F0.0
tp1302
Rp1303
((dp1304
F0.0
F0.0
F0.0
tp1305
bag397
(F0.0
F0.0
F0.0
tp1306
Rp1307
((dp1308
F0.0
F0.0
F0.0
tp1309
bag397
(F0.0
F0.0
F0.0
tp1310
Rp1311
((dp1312
F0.0
F0.0
F0.0
tp1313
bag397
(F0.0
F0.0
F0.0
tp1314
Rp1315
((dp1316
F0.0
F0.0
F0.0
tp1317
bag397
(F0.0
F0.0
F0.0
tp1318
Rp1319
((dp1320
F0.0
F0.0
F0.0
tp1321
bag397
(F0.0
F0.0
F0.0
tp1322
Rp1323
((dp1324
F0.0
F0.0
F0.0
tp1325
bag397
(F0.0
F0.0
F0.0
tp1326
Rp1327
((dp1328
F0.0
F0.0
F0.0
tp1329
bag397
(F0.0
F0.0
F0.0
tp1330
Rp1331
((dp1332
F0.0
F0.0
F0.0
tp1333
bag397
(F0.0
F0.0
F0.0
tp1334
Rp1335
((dp1336
F0.0
F0.0
F0.0
tp1337
bag397
(F0.0
F0.0
F0.0
tp1338
Rp1339
((dp1340
F0.0
F0.0
F0.0
tp1341
bag397
(F0.0
F0.0
F0.0
tp1342
Rp1343
((dp1344
F0.0
F0.0
F0.0
tp1345
bag397
(F0.0
F0.0
F0.0
tp1346
Rp1347
((dp1348
F0.0
F0.0
F0.0
tp1349
bag397
(F0.0
F0.0
F0.0
tp1350
Rp1351
((dp1352
F0.0
F0.0
F0.0
tp1353
bag397
(F0.0
F0.0
F0.0
tp1354
Rp1355
((dp1356
F0.0
F0.0
F0.0
tp1357
bag397
(F0.0
F0.0
F0.0
tp1358
Rp1359
((dp1360
F0.0
F0.0
F0.0
tp1361
bag397
(F0.0
F0.0
F0.0
tp1362
Rp1363
((dp1364
F0.0
F0.0
F0.0
tp1365
bag397
(F0.0
F0.0
F0.0
tp1366
Rp1367
((dp1368
F0.0
F0.0
F0.0
tp1369
bag397
(F0.0
F0.0
F0.0
tp1370
Rp1371
((dp1372
F0.0
F0.0
F0.0
tp1373
bag397
(F0.0
F0.0
F0.0
tp1374
Rp1375
((dp1376
F0.0
F0.0
F0.0
tp1377
bag397
(F0.0
F0.0
F0.0
tp1378
Rp1379
((dp1380
F0.0
F0.0
F0.0
tp1381
bag397
(F0.0
F0.0
F0.0
tp1382
Rp1383
((dp1384
F0.0
F0.0
F0.0
tp1385
bag397
(F0.0
F0.0
F0.0
tp1386
Rp1387
((dp1388
F0.0
F0.0
F0.0
tp1389
bag397
(F0.0
F0.0
F0.0
tp1390
Rp1391
((dp1392
F0.0
F0.0
F0.0
tp1393
bag397
(F0.0
F0.0
F0.0
tp1394
Rp1395
((dp1396
F0.0
F0.0
F0.0
tp1397
bag397
(F0.0
F0.0
F0.0
tp1398
Rp1399
((dp1400
F0.0
F0.0
F0.0
tp1401
bag397
(F0.0
F0.0
F0.0
tp1402
Rp1403
((dp1404
F0.0
F0.0
F0.0
tp1405
bag397
(F0.0
F0.0
F0.0
tp1406
Rp1407
((dp1408
F0.0
F0.0
F0.0
tp1409
bag397
(F0.0
F0.0
F0.0
tp1410
Rp1411
((dp1412
F0.0
F0.0
F0.0
tp1413
bag397
(F0.0
F0.0
F0.0
tp1414
Rp1415
((dp1416
F0.0
F0.0
F0.0
tp1417
bag397
(F0.0
F0.0
F0.0
tp1418
Rp1419
((dp1420
F0.0
F0.0
F0.0
tp1421
bag397
(F0.0
F0.0
F0.0
tp1422
Rp1423
((dp1424
F0.0
F0.0
F0.0
tp1425
bag397
(F0.0
F0.0
F0.0
tp1426
Rp1427
((dp1428
F0.0
F0.0
F0.0
tp1429
bag397
(F0.0
F0.0
F0.0
tp1430
Rp1431
((dp1432
F0.0
F0.0
F0.0
tp1433
bag397
(F0.0
F0.0
F0.0
tp1434
Rp1435
((dp1436
F0.0
F0.0
F0.0
tp1437
bag397
(F0.0
F0.0
F0.0
tp1438
Rp1439
((dp1440
F0.0
F0.0
F0.0
tp1441
bag397
(F0.0
F0.0
F0.0
tp1442
Rp1443
((dp1444
F0.0
F0.0
F0.0
tp1445
bag397
(F0.0
F0.0
F0.0
tp1446
Rp1447
((dp1448
F0.0
F0.0
F0.0
tp1449
bag397
(F0.0
F0.0
F0.0
tp1450
Rp1451
((dp1452
F0.0
F0.0
F0.0
tp1453
bag397
(F0.0
F0.0
F0.0
tp1454
Rp1455
((dp1456
F0.0
F0.0
F0.0
tp1457
bag397
(F0.0
F0.0
F0.0
tp1458
Rp1459
((dp1460
F0.0
F0.0
F0.0
tp1461
bag397
(F0.0
F0.0
F0.0
tp1462
Rp1463
((dp1464
F0.0
F0.0
F0.0
tp1465
bag397
(F0.0
F0.0
F0.0
tp1466
Rp1467
((dp1468
F0.0
F0.0
F0.0
tp1469
bag397
(F0.0
F0.0
F0.0
tp1470
Rp1471
((dp1472
F0.0
F0.0
F0.0
tp1473
bag397
(F0.0
F0.0
F0.0
tp1474
Rp1475
((dp1476
F0.0
F0.0
F0.0
tp1477
bag397
(F0.0
F0.0
F0.0
tp1478
Rp1479
((dp1480
F0.0
F0.0
F0.0
tp1481
bag397
(F0.0
F0.0
F0.0
tp1482
Rp1483
((dp1484
F0.0
F0.0
F0.0
tp1485
bag397
(F0.0
F0.0
F0.0
tp1486
Rp1487
((dp1488
F0.0
F0.0
F0.0
tp1489
bag397
(F0.0
F0.0
F0.0
tp1490
Rp1491
((dp1492
F0.0
F0.0
F0.0
tp1493
bag397
(F0.0
F0.0
F0.0
tp1494
Rp1495
((dp1496
F0.0
F0.0
F0.0
tp1497
bag397
(F0.0
F0.0
F0.0
tp1498
Rp1499
((dp1500
F0.0
F0.0
F0.0
tp1501
bag397
(F0.0
F0.0
F0.0
tp1502
Rp1503
((dp1504
F0.0
F0.0
F0.0
tp1505
bag397
(F0.0
F0.0
F0.0
tp1506
Rp1507
((dp1508
F0.0
F0.0
F0.0
tp1509
bag397
(F0.0
F0.0
F0.0
tp1510
Rp1511
((dp1512
F0.0
F0.0
F0.0
tp1513
bag397
(F0.0
F0.0
F0.0
tp1514
Rp1515
((dp1516
F0.0
F0.0
F0.0
tp1517
bag397
(F0.0
F0.0
F0.0
tp1518
Rp1519
((dp1520
F0.0
F0.0
F0.0
tp1521
bag397
(F0.0
F0.0
F0.0
tp1522
Rp1523
((dp1524
F0.0
F0.0
F0.0
tp1525
bag397
(F0.0
F0.0
F0.0
tp1526
Rp1527
((dp1528
F0.0
F0.0
F0.0
tp1529
bag397
(F0.0
F0.0
F0.0
tp1530
Rp1531
((dp1532
F0.0
F0.0
F0.0
tp1533
bag397
(F0.0
F0.0
F0.0
tp1534
Rp1535
((dp1536
F0.0
F0.0
F0.0
tp1537
bag397
(F0.0
F0.0
F0.0
tp1538
Rp1539
((dp1540
F0.0
F0.0
F0.0
tp1541
bag397
(F0.0
F0.0
F0.0
tp1542
Rp1543
((dp1544
F0.0
F0.0
F0.0
tp1545
bag397
(F0.0
F0.0
F0.0
tp1546
Rp1547
((dp1548
F0.0
F0.0
F0.0
tp1549
bag397
(F0.0
F0.0
F0.0
tp1550
Rp1551
((dp1552
F0.0
F0.0
F0.0
tp1553
bag397
(F0.0
F0.0
F0.0
tp1554
Rp1555
((dp1556
F0.0
F0.0
F0.0
tp1557
bag397
(F0.0
F0.0
F0.0
tp1558
Rp1559
((dp1560
F0.0
F0.0
F0.0
tp1561
bag397
(F0.0
F0.0
F0.0
tp1562
Rp1563
((dp1564
F0.0
F0.0
F0.0
tp1565
bag397
(F0.0
F0.0
F0.0
tp1566
Rp1567
((dp1568
F0.0
F0.0
F0.0
tp1569
bag397
(F0.0
F0.0
F0.0
tp1570
Rp1571
((dp1572
F0.0
F0.0
F0.0
tp1573
bag397
(F0.0
F0.0
F0.0
tp1574
Rp1575
((dp1576
F0.0
F0.0
F0.0
tp1577
bag397
(F0.0
F0.0
F0.0
tp1578
Rp1579
((dp1580
F0.0
F0.0
F0.0
tp1581
bag397
(F0.0
F0.0
F0.0
tp1582
Rp1583
((dp1584
F0.0
F0.0
F0.0
tp1585
bag397
(F0.0
F0.0
F0.0
tp1586
Rp1587
((dp1588
F0.0
F0.0
F0.0
tp1589
bag397
(F0.0
F0.0
F0.0
tp1590
Rp1591
((dp1592
F0.0
F0.0
F0.0
tp1593
bag397
(F0.0
F0.0
F0.0
tp1594
Rp1595
((dp1596
F0.0
F0.0
F0.0
tp1597
bag397
(F0.0
F0.0
F0.0
tp1598
Rp1599
((dp1600
F0.0
F0.0
F0.0
tp1601
bag397
(F0.0
F0.0
F0.0
tp1602
Rp1603
((dp1604
F0.0
F0.0
F0.0
tp1605
bag397
(F0.0
F0.0
F0.0
tp1606
Rp1607
((dp1608
F0.0
F0.0
F0.0
tp1609
bag397
(F0.0
F0.0
F0.0
tp1610
Rp1611
((dp1612
F0.0
F0.0
F0.0
tp1613
bag397
(F0.0
F0.0
F0.0
tp1614
Rp1615
((dp1616
F0.0
F0.0
F0.0
tp1617
bag397
(F0.0
F0.0
F0.0
tp1618
Rp1619
((dp1620
F0.0
F0.0
F0.0
tp1621
bag397
(F0.0
F0.0
F0.0
tp1622
Rp1623
((dp1624
F0.0
F0.0
F0.0
tp1625
bag397
(F0.0
F0.0
F0.0
tp1626
Rp1627
((dp1628
F0.0
F0.0
F0.0
tp1629
bag397
(F0.0
F0.0
F0.0
tp1630
Rp1631
((dp1632
F0.0
F0.0
F0.0
tp1633
bag397
(F0.0
F0.0
F0.0
tp1634
Rp1635
((dp1636
F0.0
F0.0
F0.0
tp1637
bag397
(F0.0
F0.0
F0.0
tp1638
Rp1639
((dp1640
F0.0
F0.0
F0.0
tp1641
bag397
(F0.0
F0.0
F0.0
tp1642
Rp1643
((dp1644
F0.0
F0.0
F0.0
tp1645
bag397
(F0.0
F0.0
F0.0
tp1646
Rp1647
((dp1648
F0.0
F0.0
F0.0
tp1649
bag397
(F0.0
F0.0
F0.0
tp1650
Rp1651
((dp1652
F0.0
F0.0
F0.0
tp1653
bag397
(F0.0
F0.0
F0.0
tp1654
Rp1655
((dp1656
F0.0
F0.0
F0.0
tp1657
bag397
(F0.0
F0.0
F0.0
tp1658
Rp1659
((dp1660
F0.0
F0.0
F0.0
tp1661
bag397
(F0.0
F0.0
F0.0
tp1662
Rp1663
((dp1664
F0.0
F0.0
F0.0
tp1665
bag397
(F0.0
F0.0
F0.0
tp1666
Rp1667
((dp1668
F0.0
F0.0
F0.0
tp1669
bag397
(F0.0
F0.0
F0.0
tp1670
Rp1671
((dp1672
F0.0
F0.0
F0.0
tp1673
bag397
(F0.0
F0.0
F0.0
tp1674
Rp1675
((dp1676
F0.0
F0.0
F0.0
tp1677
bag397
(F0.0
F0.0
F0.0
tp1678
Rp1679
((dp1680
F0.0
F0.0
F0.0
tp1681
bag397
(F0.0
F0.0
F0.0
tp1682
Rp1683
((dp1684
F0.0
F0.0
F0.0
tp1685
bag397
(F0.0
F0.0
F0.0
tp1686
Rp1687
((dp1688
F0.0
F0.0
F0.0
tp1689
bag397
(F0.0
F0.0
F0.0
tp1690
Rp1691
((dp1692
F0.0
F0.0
F0.0
tp1693
bag397
(F0.0
F0.0
F0.0
tp1694
Rp1695
((dp1696
F0.0
F0.0
F0.0
tp1697
bag397
(F0.0
F0.0
F0.0
tp1698
Rp1699
((dp1700
F0.0
F0.0
F0.0
tp1701
bag397
(F0.0
F0.0
F0.0
tp1702
Rp1703
((dp1704
F0.0
F0.0
F0.0
tp1705
bag397
(F0.0
F0.0
F0.0
tp1706
Rp1707
((dp1708
F0.0
F0.0
F0.0
tp1709
bag397
(F0.0
F0.0
F0.0
tp1710
Rp1711
((dp1712
F0.0
F0.0
F0.0
tp1713
bag397
(F0.0
F0.0
F0.0
tp1714
Rp1715
((dp1716
F0.0
F0.0
F0.0
tp1717
bag397
(F0.0
F0.0
F0.0
tp1718
Rp1719
((dp1720
F0.0
F0.0
F0.0
tp1721
bag397
(F0.0
F0.0
F0.0
tp1722
Rp1723
((dp1724
F0.0
F0.0
F0.0
tp1725
bag397
(F0.0
F0.0
F0.0
tp1726
Rp1727
((dp1728
F0.0
F0.0
F0.0
tp1729
bag397
(F0.0
F0.0
F0.0
tp1730
Rp1731
((dp1732
F0.0
F0.0
F0.0
tp1733
bag397
(F0.0
F0.0
F0.0
tp1734
Rp1735
((dp1736
F0.0
F0.0
F0.0
tp1737
bag397
(F0.0
F0.0
F0.0
tp1738
Rp1739
((dp1740
F0.0
F0.0
F0.0
tp1741
bag397
(F0.0
F0.0
F0.0
tp1742
Rp1743
((dp1744
F0.0
F0.0
F0.0
tp1745
bag397
(F0.0
F0.0
F0.0
tp1746
Rp1747
((dp1748
F0.0
F0.0
F0.0
tp1749
bag397
(F0.0
F0.0
F0.0
tp1750
Rp1751
((dp1752
F0.0
F0.0
F0.0
tp1753
bag397
(F0.0
F0.0
F0.0
tp1754
Rp1755
((dp1756
F0.0
F0.0
F0.0
tp1757
bag397
(F0.0
F0.0
F0.0
tp1758
Rp1759
((dp1760
F0.0
F0.0
F0.0
tp1761
bag397
(F0.0
F0.0
F0.0
tp1762
Rp1763
((dp1764
F0.0
F0.0
F0.0
tp1765
bag397
(F0.0
F0.0
F0.0
tp1766
Rp1767
((dp1768
F0.0
F0.0
F0.0
tp1769
bag397
(F0.0
F0.0
F0.0
tp1770
Rp1771
((dp1772
F0.0
F0.0
F0.0
tp1773
bag397
(F0.0
F0.0
F0.0
tp1774
Rp1775
((dp1776
F0.0
F0.0
F0.0
tp1777
bag397
(F0.0
F0.0
F0.0
tp1778
Rp1779
((dp1780
F0.0
F0.0
F0.0
tp1781
bag397
(F0.0
F0.0
F0.0
tp1782
Rp1783
((dp1784
F0.0
F0.0
F0.0
tp1785
bag397
(F0.0
F0.0
F0.0
tp1786
Rp1787
((dp1788
F0.0
F0.0
F0.0
tp1789
bag397
(F0.0
F0.0
F0.0
tp1790
Rp1791
((dp1792
F0.0
F0.0
F0.0
tp1793
bag397
(F0.0
F0.0
F0.0
tp1794
Rp1795
((dp1796
F0.0
F0.0
F0.0
tp1797
bag397
(F0.0
F0.0
F0.0
tp1798
Rp1799
((dp1800
F0.0
F0.0
F0.0
tp1801
bag397
(F0.0
F0.0
F0.0
tp1802
Rp1803
((dp1804
F0.0
F0.0
F0.0
tp1805
bag397
(F0.0
F0.0
F0.0
tp1806
Rp1807
((dp1808
F0.0
F0.0
F0.0
tp1809
bag397
(F0.0
F0.0
F0.0
tp1810
Rp1811
((dp1812
F0.0
F0.0
F0.0
tp1813
bag397
(F0.0
F0.0
F0.0
tp1814
Rp1815
((dp1816
F0.0
F0.0
F0.0
tp1817
bag397
(F0.0
F0.0
F0.0
tp1818
Rp1819
((dp1820
F0.0
F0.0
F0.0
tp1821
bag397
(F0.0
F0.0
F0.0
tp1822
Rp1823
((dp1824
F0.0
F0.0
F0.0
tp1825
bag397
(F0.0
F0.0
F0.0
tp1826
Rp1827
((dp1828
F0.0
F0.0
F0.0
tp1829
bag397
(F0.0
F0.0
F0.0
tp1830
Rp1831
((dp1832
F0.0
F0.0
F0.0
tp1833
bag397
(F0.0
F0.0
F0.0
tp1834
Rp1835
((dp1836
F0.0
F0.0
F0.0
tp1837
bag397
(F0.0
F0.0
F0.0
tp1838
Rp1839
((dp1840
F0.0
F0.0
F0.0
tp1841
bag397
(F0.0
F0.0
F0.0
tp1842
Rp1843
((dp1844
F0.0
F0.0
F0.0
tp1845
bag397
(F0.0
F0.0
F0.0
tp1846
Rp1847
((dp1848
F0.0
F0.0
F0.0
tp1849
bag397
(F0.0
F0.0
F0.0
tp1850
Rp1851
((dp1852
F0.0
F0.0
F0.0
tp1853
bag397
(F0.0
F0.0
F0.0
tp1854
Rp1855
((dp1856
F0.0
F0.0
F0.0
tp1857
bag397
(F0.0
F0.0
F0.0
tp1858
Rp1859
((dp1860
F0.0
F0.0
F0.0
tp1861
bag397
(F0.0
F0.0
F0.0
tp1862
Rp1863
((dp1864
F0.0
F0.0
F0.0
tp1865
bag397
(F0.0
F0.0
F0.0
tp1866
Rp1867
((dp1868
F0.0
F0.0
F0.0
tp1869
bag397
(F0.0
F0.0
F0.0
tp1870
Rp1871
((dp1872
F0.0
F0.0
F0.0
tp1873
bag397
(F0.0
F0.0
F0.0
tp1874
Rp1875
((dp1876
F0.0
F0.0
F0.0
tp1877
bag397
(F0.0
F0.0
F0.0
tp1878
Rp1879
((dp1880
F0.0
F0.0
F0.0
tp1881
bag397
(F0.0
F0.0
F0.0
tp1882
Rp1883
((dp1884
F0.0
F0.0
F0.0
tp1885
bag397
(F0.0
F0.0
F0.0
tp1886
Rp1887
((dp1888
F0.0
F0.0
F0.0
tp1889
bag397
(F0.0
F0.0
F0.0
tp1890
Rp1891
((dp1892
F0.0
F0.0
F0.0
tp1893
bag397
(F0.0
F0.0
F0.0
tp1894
Rp1895
((dp1896
F0.0
F0.0
F0.0
tp1897
bag397
(F0.0
F0.0
F0.0
tp1898
Rp1899
((dp1900
F0.0
F0.0
F0.0
tp1901
bag397
(F0.0
F0.0
F0.0
tp1902
Rp1903
((dp1904
F0.0
F0.0
F0.0
tp1905
bag397
(F0.0
F0.0
F0.0
tp1906
Rp1907
((dp1908
F0.0
F0.0
F0.0
tp1909
bag397
(F0.0
F0.0
F0.0
tp1910
Rp1911
((dp1912
F0.0
F0.0
F0.0
tp1913
bag397
(F0.0
F0.0
F0.0
tp1914
Rp1915
((dp1916
F0.0
F0.0
F0.0
tp1917
bag397
(F0.0
F0.0
F0.0
tp1918
Rp1919
((dp1920
F0.0
F0.0
F0.0
tp1921
bag397
(F0.0
F0.0
F0.0
tp1922
Rp1923
((dp1924
F0.0
F0.0
F0.0
tp1925
bag397
(F0.0
F0.0
F0.0
tp1926
Rp1927
((dp1928
F0.0
F0.0
F0.0
tp1929
bag397
(F0.0
F0.0
F0.0
tp1930
Rp1931
((dp1932
F0.0
F0.0
F0.0
tp1933
bag397
(F0.0
F0.0
F0.0
tp1934
Rp1935
((dp1936
F0.0
F0.0
F0.0
tp1937
bag397
(F0.0
F0.0
F0.0
tp1938
Rp1939
((dp1940
F0.0
F0.0
F0.0
tp1941
bag397
(F0.0
F0.0
F0.0
tp1942
Rp1943
((dp1944
F0.0
F0.0
F0.0
tp1945
bag397
(F0.0
F0.0
F0.0
tp1946
Rp1947
((dp1948
F0.0
F0.0
F0.0
tp1949
bag397
(F0.0
F0.0
F0.0
tp1950
Rp1951
((dp1952
F0.0
F0.0
F0.0
tp1953
bag397
(F0.0
F0.0
F0.0
tp1954
Rp1955
((dp1956
F0.0
F0.0
F0.0
tp1957
basS'position'
p1958
(lp1959
g397
(F900.0
F-60.0
F2.0
tp1960
Rp1961
((dp1962
F900.0
F-60.0
F2.0
tp1963
bag397
(F900.0
F-60.0
F2.0
tp1964
Rp1965
((dp1966
F900.0
F-60.0
F2.0
tp1967
bag397
(F900.0
F-60.0
F2.0
tp1968
Rp1969
((dp1970
F900.0
F-60.0
F2.0
tp1971
bag397
(F900.0
F-60.0
F2.0
tp1972
Rp1973
((dp1974
F900.0
F-60.0
F2.0
tp1975
bag397
(F900.0
F-60.0
F2.0
tp1976
Rp1977
((dp1978
F900.0
F-60.0
F2.0
tp1979
bag397
(F900.0
F-60.0
F2.0
tp1980
Rp1981
((dp1982
F900.0
F-60.0
F2.0
tp1983
bag397
(F900.0
F-60.0
F2.0
tp1984
Rp1985
((dp1986
F900.0
F-60.0
F2.0
tp1987
bag397
(F900.0
F-60.0
F2.0
tp1988
Rp1989
((dp1990
F900.0
F-60.0
F2.0
tp1991
bag397
(F900.0
F-60.0
F2.0
tp1992
Rp1993
((dp1994
F900.0
F-60.0
F2.0
tp1995
bag397
(F900.0
F-60.0
F2.0
tp1996
Rp1997
((dp1998
F900.0
F-60.0
F2.0
tp1999
bag397
(F900.0
F-60.0
F2.0
tp2000
Rp2001
((dp2002
F900.0
F-60.0
F2.0
tp2003
bag397
(F900.0
F-60.0
F2.0
tp2004
Rp2005
((dp2006
F900.0
F-60.0
F2.0
tp2007
bag397
(F900.0
F-60.0
F2.0
tp2008
Rp2009
((dp2010
F900.0
F-60.0
F2.0
tp2011
bag397
(F900.0
F-60.0
F2.0
tp2012
Rp2013
((dp2014
F900.0
F-60.0
F2.0
tp2015
bag397
(F900.0
F-60.0
F2.0
tp2016
Rp2017
((dp2018
F900.0
F-60.0
F2.0
tp2019
bag397
(F900.0
F-60.0
F2.0
tp2020
Rp2021
((dp2022
F900.0
F-60.0
F2.0
tp2023
bag397
(F900.0
F-60.0
F2.0
tp2024
Rp2025
((dp2026
F900.0
F-60.0
F2.0
tp2027
bag397
(F900.0
F-60.0
F2.0
tp2028
Rp2029
((dp2030
F900.0
F-60.0
F2.0
tp2031
bag397
(F900.0
F-60.0
F2.0
tp2032
Rp2033
((dp2034
F900.0
F-60.0
F2.0
tp2035
bag397
(F900.0
F-60.0
F2.0
tp2036
Rp2037
((dp2038
F900.0
F-60.0
F2.0
tp2039
bag397
(F900.0
F-60.0
F2.0
tp2040
Rp2041
((dp2042
F900.0
F-60.0
F2.0
tp2043
bag397
(F900.0
F-60.0
F2.0
tp2044
Rp2045
((dp2046
F900.0
F-60.0
F2.0
tp2047
bag397
(F900.0
F-60.0
F2.0
tp2048
Rp2049
((dp2050
F900.0
F-60.0
F2.0
tp2051
bag397
(F900.0
F-60.0
F2.0
tp2052
Rp2053
((dp2054
F900.0
F-60.0
F2.0
tp2055
bag397
(F900.0
F-60.0
F2.0
tp2056
Rp2057
((dp2058
F900.0
F-60.0
F2.0
tp2059
bag397
(F900.0
F-60.0
F2.0
tp2060
Rp2061
((dp2062
F900.0
F-60.0
F2.0
tp2063
bag397
(F900.0
F-60.0
F2.0
tp2064
Rp2065
((dp2066
F900.0
F-60.0
F2.0
tp2067
bag397
(F900.0
F-60.0
F2.0
tp2068
Rp2069
((dp2070
F900.0
F-60.0
F2.0
tp2071
bag397
(F900.0
F-60.0
F2.0
tp2072
Rp2073
((dp2074
F900.0
F-60.0
F2.0
tp2075
bag397
(F900.0
F-60.0
F2.0
tp2076
Rp2077
((dp2078
F900.0
F-60.0
F2.0
tp2079
bag397
(F900.0
F-60.0
F2.0
tp2080
Rp2081
((dp2082
F900.0
F-60.0
F2.0
tp2083
bag397
(F900.0
F-60.0
F2.0
tp2084
Rp2085
((dp2086
F900.0
F-60.0
F2.0
tp2087
bag397
(F900.0
F-60.0
F2.0
tp2088
Rp2089
((dp2090
F900.0
F-60.0
F2.0
tp2091
bag397
(F900.0269775390625
F-60.0
F2.0
tp2092
Rp2093
((dp2094
F900.0269775390625
F-60.0
F2.0
tp2095
bag397
(F900.05328369140625
F-60.0
F2.0
tp2096
Rp2097
((dp2098
F900.05328369140625
F-60.0
F2.0
tp2099
bag397
(F900.07891845703125
F-60.0
F2.0
tp2100
Rp2101
((dp2102
F900.07891845703125
F-60.0
F2.0
tp2103
bag397
(F900.1038818359375
F-60.0
F2.0
tp2104
Rp2105
((dp2106
F900.1038818359375
F-60.0
F2.0
tp2107
bag397
(F900.12823486328125
F-60.0
F2.0
tp2108
Rp2109
((dp2110
F900.12823486328125
F-60.0
F2.0
tp2111
bag397
(F900.1519775390625
F-60.0
F2.0
tp2112
Rp2113
((dp2114
F900.1519775390625
F-60.0
F2.0
tp2115
bag397
(F900.1751708984375
F-60.0
F2.0
tp2116
Rp2117
((dp2118
F900.1751708984375
F-60.0
F2.0
tp2119
bag397
(F900.19775390625
F-60.0
F2.0
tp2120
Rp2121
((dp2122
F900.19775390625
F-60.0
F2.0
tp2123
bag397
(F900.21978759765625
F-60.0
F2.0
tp2124
Rp2125
((dp2126
F900.21978759765625
F-60.0
F2.0
tp2127
bag397
(F900.24127197265625
F-60.0
F2.0
tp2128
Rp2129
((dp2130
F900.24127197265625
F-60.0
F2.0
tp2131
bag397
(F900.26220703125
F-60.0
F2.0
tp2132
Rp2133
((dp2134
F900.26220703125
F-60.0
F2.0
tp2135
bag397
(F900.28265380859375
F-60.0
F2.0
tp2136
Rp2137
((dp2138
F900.28265380859375
F-60.0
F2.0
tp2139
bag397
(F900.30255126953125
F-60.0
F2.0
tp2140
Rp2141
((dp2142
F900.30255126953125
F-60.0
F2.0
tp2143
bag397
(F900.32196044921875
F-60.0
F2.0
tp2144
Rp2145
((dp2146
F900.32196044921875
F-60.0
F2.0
tp2147
bag397
(F900.34088134765625
F-60.0
F2.0
tp2148
Rp2149
((dp2150
F900.34088134765625
F-60.0
F2.0
tp2151
bag397
(F900.35931396484375
F-60.0
F2.0
tp2152
Rp2153
((dp2154
F900.35931396484375
F-60.0
F2.0
tp2155
bag397
(F900.3773193359375
F-60.0
F2.0
tp2156
Rp2157
((dp2158
F900.3773193359375
F-60.0
F2.0
tp2159
bag397
(F900.3948974609375
F-60.0
F2.0
tp2160
Rp2161
((dp2162
F900.3948974609375
F-60.0
F2.0
tp2163
bag397
(F900.4119873046875
F-60.0
F2.0
tp2164
Rp2165
((dp2166
F900.4119873046875
F-60.0
F2.0
tp2167
bag397
(F900.42864990234375
F-60.0
F2.0
tp2168
Rp2169
((dp2170
F900.42864990234375
F-60.0
F2.0
tp2171
bag397
(F900.4449462890625
F-60.0
F2.0
tp2172
Rp2173
((dp2174
F900.4449462890625
F-60.0
F2.0
tp2175
bag397
(F900.4608154296875
F-60.0
F2.0
tp2176
Rp2177
((dp2178
F900.4608154296875
F-60.0
F2.0
tp2179
bag397
(F900.476318359375
F-60.0
F2.0
tp2180
Rp2181
((dp2182
F900.476318359375
F-60.0
F2.0
tp2183
bag397
(F900.49139404296875
F-60.0
F2.0
tp2184
Rp2185
((dp2186
F900.49139404296875
F-60.0
F2.0
tp2187
bag397
(F900.506103515625
F-60.0
F2.0
tp2188
Rp2189
((dp2190
F900.506103515625
F-60.0
F2.0
tp2191
bag397
(F900.52044677734375
F-60.0
F2.0
tp2192
Rp2193
((dp2194
F900.52044677734375
F-60.0
F2.0
tp2195
bag397
(F900.534423828125
F-60.0
F2.0
tp2196
Rp2197
((dp2198
F900.534423828125
F-60.0
F2.0
tp2199
bag397
(F900.548095703125
F-60.0
F2.0
tp2200
Rp2201
((dp2202
F900.548095703125
F-60.0
F2.0
tp2203
bag397
(F900.5614013671875
F-60.0
F2.0
tp2204
Rp2205
((dp2206
F900.5614013671875
F-60.0
F2.0
tp2207
bag397
(F900.57440185546875
F-60.0
F2.0
tp2208
Rp2209
((dp2210
F900.57440185546875
F-60.0
F2.0
tp2211
bag397
(F900.614013671875
F-60.0
F2.0
tp2212
Rp2213
((dp2214
F900.614013671875
F-60.0
F2.0
tp2215
bag397
(F900.6795654296875
F-60.0
F2.0
tp2216
Rp2217
((dp2218
F900.6795654296875
F-60.0
F2.0
tp2219
bag397
(F900.74346923828125
F-60.0
F2.0
tp2220
Rp2221
((dp2222
F900.74346923828125
F-60.0
F2.0
tp2223
bag397
(F900.8057861328125
F-60.0
F2.0
tp2224
Rp2225
((dp2226
F900.8057861328125
F-60.0
F2.0
tp2227
bag397
(F900.89349365234375
F-60.0
F2.0
tp2228
Rp2229
((dp2230
F900.89349365234375
F-60.0
F2.0
tp2231
bag397
(F900.97906494140625
F-60.0
F2.0
tp2232
Rp2233
((dp2234
F900.97906494140625
F-60.0
F2.0
tp2235
bag397
(F901.08941650390625
F-60.0
F2.0
tp2236
Rp2237
((dp2238
F901.08941650390625
F-60.0
F2.0
tp2239
bag397
(F901.197021484375
F-60.0
F2.0
tp2240
Rp2241
((dp2242
F901.197021484375
F-60.0
F2.0
tp2243
bag397
(F901.32891845703125
F-60.0
F2.0
tp2244
Rp2245
((dp2246
F901.32891845703125
F-60.0
F2.0
tp2247
bag397
(F901.45751953125
F-60.0
F2.0
tp2248
Rp2249
((dp2250
F901.45751953125
F-60.0
F2.0
tp2251
bag397
(F901.60986328125
F-60.0
F2.0
tp2252
Rp2253
((dp2254
F901.60986328125
F-60.0
F2.0
tp2255
bag397
(F901.7584228515625
F-60.0
F2.0
tp2256
Rp2257
((dp2258
F901.7584228515625
F-60.0
F2.0
tp2259
bag397
(F901.93023681640625
F-60.0
F2.0
tp2260
Rp2261
((dp2262
F901.93023681640625
F-60.0
F2.0
tp2263
bag397
(F902.0977783203125
F-60.0
F2.0
tp2264
Rp2265
((dp2266
F902.0977783203125
F-60.0
F2.0
tp2267
bag397
(F902.26116943359375
F-60.0
F2.0
tp2268
Rp2269
((dp2270
F902.26116943359375
F-60.0
F2.0
tp2271
bag397
(F902.4473876953125
F-60.0
F2.0
tp2272
Rp2273
((dp2274
F902.4473876953125
F-60.0
F2.0
tp2275
bag397
(F902.62896728515625
F-60.0
F2.0
tp2276
Rp2277
((dp2278
F902.62896728515625
F-60.0
F2.0
tp2279
bag397
(F902.8330078125
F-60.0
F2.0
tp2280
Rp2281
((dp2282
F902.8330078125
F-60.0
F2.0
tp2283
bag397
(F903.031982421875
F-60.0
F2.0
tp2284
Rp2285
((dp2286
F903.031982421875
F-60.0
F2.0
tp2287
bag397
(F903.2529296875
F-60.0
F2.0
tp2288
Rp2289
((dp2290
F903.2529296875
F-60.0
F2.0
tp2291
bag397
(F903.4683837890625
F-60.0
F2.0
tp2292
Rp2293
((dp2294
F903.4683837890625
F-60.0
F2.0
tp2295
bag397
(F903.7054443359375
F-60.0
F2.0
tp2296
Rp2297
((dp2298
F903.7054443359375
F-60.0
F2.0
tp2299
bag397
(F903.93658447265625
F-60.0
F2.0
tp2300
Rp2301
((dp2302
F903.93658447265625
F-60.0
F2.0
tp2303
bag397
(F904.1619873046875
F-60.0
F2.0
tp2304
Rp2305
((dp2306
F904.1619873046875
F-60.0
F2.0
tp2307
bag397
(F904.40869140625
F-60.0
F2.0
tp2308
Rp2309
((dp2310
F904.40869140625
F-60.0
F2.0
tp2311
bag397
(F904.6492919921875
F-60.0
F2.0
tp2312
Rp2313
((dp2314
F904.6492919921875
F-60.0
F2.0
tp2315
bag397
(F904.91082763671875
F-60.0
F2.0
tp2316
Rp2317
((dp2318
F904.91082763671875
F-60.0
F2.0
tp2319
bag397
(F905.16583251953125
F-60.0
F2.0
tp2320
Rp2321
((dp2322
F905.16583251953125
F-60.0
F2.0
tp2323
bag397
(F905.44146728515625
F-60.0
F2.0
tp2324
Rp2325
((dp2326
F905.44146728515625
F-60.0
F2.0
tp2327
bag397
(F905.710205078125
F-60.0
F2.0
tp2328
Rp2329
((dp2330
F905.710205078125
F-60.0
F2.0
tp2331
bag397
(F905.99920654296875
F-60.0
F2.0
tp2332
Rp2333
((dp2334
F905.99920654296875
F-60.0
F2.0
tp2335
bag397
(F906.281005859375
F-60.0
F2.0
tp2336
Rp2337
((dp2338
F906.281005859375
F-60.0
F2.0
tp2339
bag397
(F906.5557861328125
F-60.0
F2.0
tp2340
Rp2341
((dp2342
F906.5557861328125
F-60.0
F2.0
tp2343
bag397
(F906.8507080078125
F-60.0
F2.0
tp2344
Rp2345
((dp2346
F906.8507080078125
F-60.0
F2.0
tp2347
bag397
(F907.13824462890625
F-60.0
F2.0
tp2348
Rp2349
((dp2350
F907.13824462890625
F-60.0
F2.0
tp2351
bag397
(F907.44561767578125
F-60.0
F2.0
tp2352
Rp2353
((dp2354
F907.44561767578125
F-60.0
F2.0
tp2355
bag397
(F907.74530029296875
F-60.0
F2.0
tp2356
Rp2357
((dp2358
F907.74530029296875
F-60.0
F2.0
tp2359
bag397
(F908.06451416015625
F-60.0
F2.0
tp2360
Rp2361
((dp2362
F908.06451416015625
F-60.0
F2.0
tp2363
bag397
(F908.375732421875
F-60.0
F2.0
tp2364
Rp2365
((dp2366
F908.375732421875
F-60.0
F2.0
tp2367
bag397
(F908.7061767578125
F-60.0
F2.0
tp2368
Rp2369
((dp2370
F908.7061767578125
F-60.0
F2.0
tp2371
bag397
(F909.02838134765625
F-60.0
F2.0
tp2372
Rp2373
((dp2374
F909.02838134765625
F-60.0
F2.0
tp2375
bag397
(F909.3695068359375
F-60.0
F2.0
tp2376
Rp2377
((dp2378
F909.3695068359375
F-60.0
F2.0
tp2379
bag397
(F909.7021484375
F-60.0
F2.0
tp2380
Rp2381
((dp2382
F909.7021484375
F-60.0
F2.0
tp2383
bag397
(F910.053466796875
F-60.0
F2.0
tp2384
Rp2385
((dp2386
F910.053466796875
F-60.0
F2.0
tp2387
bag397
(F910.39605712890625
F-60.0
F2.0
tp2388
Rp2389
((dp2390
F910.39605712890625
F-60.0
F2.0
tp2391
bag397
(F910.7301025390625
F-60.0
F2.0
tp2392
Rp2393
((dp2394
F910.7301025390625
F-60.0
F2.0
tp2395
bag397
(F911.082763671875
F-60.0
F2.0
tp2396
Rp2397
((dp2398
F911.082763671875
F-60.0
F2.0
tp2399
bag397
(F911.4266357421875
F-60.0
F2.0
tp2400
Rp2401
((dp2402
F911.4266357421875
F-60.0
F2.0
tp2403
bag397
(F911.7889404296875
F-60.0
F2.0
tp2404
Rp2405
((dp2406
F911.7889404296875
F-60.0
F2.0
tp2407
bag397
(F912.1422119140625
F-60.0
F2.0
tp2408
Rp2409
((dp2410
F912.1422119140625
F-60.0
F2.0
tp2411
bag397
(F912.51361083984375
F-60.0
F2.0
tp2412
Rp2413
((dp2414
F912.51361083984375
F-60.0
F2.0
tp2415
bag397
(F912.87579345703125
F-60.0
F2.0
tp2416
Rp2417
((dp2418
F912.87579345703125
F-60.0
F2.0
tp2419
bag397
(F913.255859375
F-60.0
F2.0
tp2420
Rp2421
((dp2422
F913.255859375
F-60.0
F2.0
tp2423
bag397
(F913.62646484375
F-60.0
F2.0
tp2424
Rp2425
((dp2426
F913.62646484375
F-60.0
F2.0
tp2427
bag397
(F914.01483154296875
F-60.0
F2.0
tp2428
Rp2429
((dp2430
F914.01483154296875
F-60.0
F2.0
tp2431
bag397
(F914.39349365234375
F-60.0
F2.0
tp2432
Rp2433
((dp2434
F914.39349365234375
F-60.0
F2.0
tp2435
bag397
(F914.7896728515625
F-60.0
F2.0
tp2436
Rp2437
((dp2438
F914.7896728515625
F-60.0
F2.0
tp2439
bag397
(F915.176025390625
F-60.0
F2.0
tp2440
Rp2441
((dp2442
F915.176025390625
F-60.0
F2.0
tp2443
bag397
(F915.5797119140625
F-60.0
F2.0
tp2444
Rp2445
((dp2446
F915.5797119140625
F-60.0
F2.0
tp2447
bag397
(F915.97332763671875
F-60.0
F2.0
tp2448
Rp2449
((dp2450
F915.97332763671875
F-60.0
F2.0
tp2451
bag397
(F916.35711669921875
F-60.0
F2.0
tp2452
Rp2453
((dp2454
F916.35711669921875
F-60.0
F2.0
tp2455
bag397
(F916.75830078125
F-60.0
F2.0
tp2456
Rp2457
((dp2458
F916.75830078125
F-60.0
F2.0
tp2459
bag397
(F917.1495361328125
F-60.0
F2.0
tp2460
Rp2461
((dp2462
F917.1495361328125
F-60.0
F2.0
tp2463
bag397
(F917.5579833984375
F-60.0
F2.0
tp2464
Rp2465
((dp2466
F917.5579833984375
F-60.0
F2.0
tp2467
bag397
(F917.95623779296875
F-60.0
F2.0
tp2468
Rp2469
((dp2470
F917.95623779296875
F-60.0
F2.0
tp2471
bag397
(F918.37152099609375
F-60.0
F2.0
tp2472
Rp2473
((dp2474
F918.37152099609375
F-60.0
F2.0
tp2475
bag397
(F918.7764892578125
F-60.0
F2.0
tp2476
Rp2477
((dp2478
F918.7764892578125
F-60.0
F2.0
tp2479
bag397
(F919.17132568359375
F-60.0
F2.0
tp2480
Rp2481
((dp2482
F919.17132568359375
F-60.0
F2.0
tp2483
bag397
(F919.58331298828125
F-60.0
F2.0
tp2484
Rp2485
((dp2486
F919.58331298828125
F-60.0
F2.0
tp2487
bag397
(F919.98504638671875
F-60.0
F2.0
tp2488
Rp2489
((dp2490
F919.98504638671875
F-60.0
F2.0
tp2491
bag397
(F920.40374755859375
F-60.0
F2.0
tp2492
Rp2493
((dp2494
F920.40374755859375
F-60.0
F2.0
tp2495
bag397
(F920.81201171875
F-60.0
F2.0
tp2496
Rp2497
((dp2498
F920.81201171875
F-60.0
F2.0
tp2499
bag397
(F921.237060546875
F-60.0
F2.0
tp2500
Rp2501
((dp2502
F921.237060546875
F-60.0
F2.0
tp2503
bag397
(F921.6514892578125
F-60.0
F2.0
tp2504
Rp2505
((dp2506
F921.6514892578125
F-60.0
F2.0
tp2507
bag397
(F922.08258056640625
F-60.0
F2.0
tp2508
Rp2509
((dp2510
F922.08258056640625
F-60.0
F2.0
tp2511
bag397
(F922.5029296875
F-60.0
F2.0
tp2512
Rp2513
((dp2514
F922.5029296875
F-60.0
F2.0
tp2515
bag397
(F922.93975830078125
F-60.0
F2.0
tp2516
Rp2517
((dp2518
F922.93975830078125
F-60.0
F2.0
tp2519
bag397
(F923.36572265625
F-60.0
F2.0
tp2520
Rp2521
((dp2522
F923.36572265625
F-60.0
F2.0
tp2523
bag397
(F923.80804443359375
F-60.0
F2.0
tp2524
Rp2525
((dp2526
F923.80804443359375
F-60.0
F2.0
tp2527
bag397
(F924.23931884765625
F-60.0
F2.0
tp2528
Rp2529
((dp2530
F924.23931884765625
F-60.0
F2.0
tp2531
bag397
(F924.68682861328125
F-60.0
F2.0
tp2532
Rp2533
((dp2534
F924.68682861328125
F-60.0
F2.0
tp2535
bag397
(F925.1231689453125
F-60.0
F2.0
tp2536
Rp2537
((dp2538
F925.1231689453125
F-60.0
F2.0
tp2539
bag397
(F925.54864501953125
F-60.0
F2.0
tp2540
Rp2541
((dp2542
F925.54864501953125
F-60.0
F2.0
tp2543
bag397
(F925.990478515625
F-60.0
F2.0
tp2544
Rp2545
((dp2546
F925.990478515625
F-60.0
F2.0
tp2547
bag397
(F926.42132568359375
F-60.0
F2.0
tp2548
Rp2549
((dp2550
F926.42132568359375
F-60.0
F2.0
tp2551
bag397
(F926.868408203125
F-60.0
F2.0
tp2552
Rp2553
((dp2554
F926.868408203125
F-60.0
F2.0
tp2555
bag397
(F927.3043212890625
F-60.0
F2.0
tp2556
Rp2557
((dp2558
F927.3043212890625
F-60.0
F2.0
tp2559
bag397
(F927.75634765625
F-60.0
F2.0
tp2560
Rp2561
((dp2562
F927.75634765625
F-60.0
F2.0
tp2563
bag397
(F928.1971435546875
F-60.0
F2.0
tp2564
Rp2565
((dp2566
F928.1971435546875
F-60.0
F2.0
tp2567
bag397
(F928.65386962890625
F-60.0
F2.0
tp2568
Rp2569
((dp2570
F928.65386962890625
F-60.0
F2.0
tp2571
bag397
(F929.0992431640625
F-60.0
F2.0
tp2572
Rp2573
((dp2574
F929.0992431640625
F-60.0
F2.0
tp2575
bag397
(F929.56048583984375
F-60.0
F2.0
tp2576
Rp2577
((dp2578
F929.56048583984375
F-60.0
F2.0
tp2579
bag397
(F930.01025390625
F-60.0
F2.0
tp2580
Rp2581
((dp2582
F930.01025390625
F-60.0
F2.0
tp2583
bag397
(F930.47576904296875
F-60.0
F2.0
tp2584
Rp2585
((dp2586
F930.47576904296875
F-60.0
F2.0
tp2587
bag397
(F930.9296875
F-60.0
F2.0
tp2588
Rp2589
((dp2590
F930.9296875
F-60.0
F2.0
tp2591
bag397
(F931.372314453125
F-60.0
F2.0
tp2592
Rp2593
((dp2594
F931.372314453125
F-60.0
F2.0
tp2595
bag397
(F931.83087158203125
F-60.0
F2.0
tp2596
Rp2597
((dp2598
F931.83087158203125
F-60.0
F2.0
tp2599
bag397
(F932.27801513671875
F-60.0
F2.0
tp2600
Rp2601
((dp2602
F932.27801513671875
F-60.0
F2.0
tp2603
bag397
(F932.740966796875
F-60.0
F2.0
tp2604
Rp2605
((dp2606
F932.740966796875
F-60.0
F2.0
tp2607
bag397
(F933.1923828125
F-60.0
F2.0
tp2608
Rp2609
((dp2610
F933.1923828125
F-60.0
F2.0
tp2611
bag397
(F933.65948486328125
F-60.0
F2.0
tp2612
Rp2613
((dp2614
F933.65948486328125
F-60.0
F2.0
tp2615
bag397
(F934.114990234375
F-60.0
F2.0
tp2616
Rp2617
((dp2618
F934.114990234375
F-60.0
F2.0
tp2619
bag397
(F934.5860595703125
F-60.0
F2.0
tp2620
Rp2621
((dp2622
F934.5860595703125
F-60.0
F2.0
tp2623
bag397
(F935.04541015625
F-60.0
F2.0
tp2624
Rp2625
((dp2626
F935.04541015625
F-60.0
F2.0
tp2627
bag397
(F935.520263671875
F-60.0
F2.0
tp2628
Rp2629
((dp2630
F935.520263671875
F-60.0
F2.0
tp2631
bag397
(F935.98333740234375
F-60.0
F2.0
tp2632
Rp2633
((dp2634
F935.98333740234375
F-60.0
F2.0
tp2635
bag397
(F936.4617919921875
F-60.0
F2.0
tp2636
Rp2637
((dp2638
F936.4617919921875
F-60.0
F2.0
tp2639
bag397
(F936.9283447265625
F-60.0
F2.0
tp2640
Rp2641
((dp2642
F936.9283447265625
F-60.0
F2.0
tp2643
bag397
(F937.41021728515625
F-60.0
F2.0
tp2644
Rp2645
((dp2646
F937.41021728515625
F-60.0
F2.0
tp2647
bag397
(F937.880126953125
F-60.0
F2.0
tp2648
Rp2649
((dp2650
F937.880126953125
F-60.0
F2.0
tp2651
bag397
(F938.36529541015625
F-60.0
F2.0
tp2652
Rp2653
((dp2654
F938.36529541015625
F-60.0
F2.0
tp2655
bag397
(F938.83837890625
F-60.0
F2.0
tp2656
Rp2657
((dp2658
F938.83837890625
F-60.0
F2.0
tp2659
bag397
(F939.2996826171875
F-60.0
F2.0
tp2660
Rp2661
((dp2662
F939.2996826171875
F-60.0
F2.0
tp2663
bag397
(F939.77642822265625
F-60.0
F2.0
tp2664
Rp2665
((dp2666
F939.77642822265625
F-60.0
F2.0
tp2667
bag397
(F940.24127197265625
F-60.0
F2.0
tp2668
Rp2669
((dp2670
F940.24127197265625
F-60.0
F2.0
tp2671
bag397
(F940.72149658203125
F-60.0
F2.0
tp2672
Rp2673
((dp2674
F940.72149658203125
F-60.0
F2.0
tp2675
bag397
(F941.18975830078125
F-60.0
F2.0
tp2676
Rp2677
((dp2678
F941.18975830078125
F-60.0
F2.0
tp2679
bag397
(F941.67333984375
F-60.0
F2.0
tp2680
Rp2681
((dp2682
F941.67333984375
F-60.0
F2.0
tp2683
bag397
(F942.1448974609375
F-60.0
F2.0
tp2684
Rp2685
((dp2686
F942.1448974609375
F-60.0
F2.0
tp2687
bag397
(F942.63165283203125
F-60.0
F2.0
tp2688
Rp2689
((dp2690
F942.63165283203125
F-60.0
F2.0
tp2691
bag397
(F943.10626220703125
F-60.0
F2.0
tp2692
Rp2693
((dp2694
F943.10626220703125
F-60.0
F2.0
tp2695
bag397
(F943.59600830078125
F-60.0
F2.0
tp2696
Rp2697
((dp2698
F943.59600830078125
F-60.0
F2.0
tp2699
bag397
(F944.07354736328125
F-60.0
F2.0
tp2700
Rp2701
((dp2702
F944.07354736328125
F-60.0
F2.0
tp2703
bag397
(F944.566162109375
F-60.0
F2.0
tp2704
Rp2705
((dp2706
F944.566162109375
F-60.0
F2.0
tp2707
bag397
(F945.0465087890625
F-60.0
F2.0
tp2708
Rp2709
((dp2710
F945.0465087890625
F-60.0
F2.0
tp2711
bag397
(F945.5418701171875
F-60.0
F2.0
tp2712
Rp2713
((dp2714
F945.5418701171875
F-60.0
F2.0
tp2715
bag397
(F946.02490234375
F-60.0
F2.0
tp2716
Rp2717
((dp2718
F946.02490234375
F-60.0
F2.0
tp2719
bag397
(F946.5228271484375
F-60.0
F2.0
tp2720
Rp2721
((dp2722
F946.5228271484375
F-60.0
F2.0
tp2723
bag397
(F947.00836181640625
F-60.0
F2.0
tp2724
Rp2725
((dp2726
F947.00836181640625
F-60.0
F2.0
tp2727
bag397
(F947.4818115234375
F-60.0
F2.0
tp2728
Rp2729
((dp2730
F947.4818115234375
F-60.0
F2.0
tp2731
bag397
(F947.97039794921875
F-60.0
F2.0
tp2732
Rp2733
((dp2734
F947.97039794921875
F-60.0
F2.0
tp2735
bag397
(F948.44683837890625
F-60.0
F2.0
tp2736
Rp2737
((dp2738
F948.44683837890625
F-60.0
F2.0
tp2739
bag397
(F948.9383544921875
F-60.0
F2.0
tp2740
Rp2741
((dp2742
F948.9383544921875
F-60.0
F2.0
tp2743
bag397
(F949.41766357421875
F-60.0
F2.0
tp2744
Rp2745
((dp2746
F949.41766357421875
F-60.0
F2.0
tp2747
bag397
(F949.9119873046875
F-60.0
F2.0
tp2748
Rp2749
((dp2750
F949.9119873046875
F-60.0
F2.0
tp2751
bag397
(F950.39398193359375
F-60.0
F2.0
tp2752
Rp2753
((dp2754
F950.39398193359375
F-60.0
F2.0
tp2755
bag397
(F950.89093017578125
F-60.0
F2.0
tp2756
Rp2757
((dp2758
F950.89093017578125
F-60.0
F2.0
tp2759
bag397
(F951.37548828125
F-60.0
F2.0
tp2760
Rp2761
((dp2762
F951.37548828125
F-60.0
F2.0
tp2763
bag397
(F951.8480224609375
F-60.0
F2.0
tp2764
Rp2765
((dp2766
F951.8480224609375
F-60.0
F2.0
tp2767
bag397
(F952.335693359375
F-60.0
F2.0
tp2768
Rp2769
((dp2770
F952.335693359375
F-60.0
F2.0
tp2771
bag397
(F952.81121826171875
F-60.0
F2.0
tp2772
Rp2773
((dp2774
F952.81121826171875
F-60.0
F2.0
tp2775
bag397
(F953.3018798828125
F-60.0
F2.0
tp2776
Rp2777
((dp2778
F953.3018798828125
F-60.0
F2.0
tp2779
bag397
(F953.78033447265625
F-60.0
F2.0
tp2780
Rp2781
((dp2782
F953.78033447265625
F-60.0
F2.0
tp2783
bag397
(F954.2738037109375
F-60.0
F2.0
tp2784
Rp2785
((dp2786
F954.2738037109375
F-60.0
F2.0
tp2787
bag397
(F954.7550048828125
F-60.0
F2.0
tp2788
Rp2789
((dp2790
F954.7550048828125
F-60.0
F2.0
tp2791
bag397
(F955.25115966796875
F-60.0
F2.0
tp2792
Rp2793
((dp2794
F955.25115966796875
F-60.0
F2.0
tp2795
bag397
(F955.7349853515625
F-60.0
F2.0
tp2796
Rp2797
((dp2798
F955.7349853515625
F-60.0
F2.0
tp2799
bag397
(F956.23370361328125
F-60.0
F2.0
tp2800
Rp2801
((dp2802
F956.23370361328125
F-60.0
F2.0
tp2803
bag397
(F956.719970703125
F-60.0
F2.0
tp2804
Rp2805
((dp2806
F956.719970703125
F-60.0
F2.0
tp2807
bag397
(F957.19415283203125
F-60.0
F2.0
tp2808
Rp2809
((dp2810
F957.19415283203125
F-60.0
F2.0
tp2811
bag397
(F957.6834716796875
F-60.0
F2.0
tp2812
Rp2813
((dp2814
F957.6834716796875
F-60.0
F2.0
tp2815
bag397
(F958.16058349609375
F-60.0
F2.0
tp2816
Rp2817
((dp2818
F958.16058349609375
F-60.0
F2.0
tp2819
bag397
(F958.65277099609375
F-60.0
F2.0
tp2820
Rp2821
((dp2822
F958.65277099609375
F-60.0
F2.0
tp2823
bag397
(F959.13275146484375
F-60.0
F2.0
tp2824
Rp2825
((dp2826
F959.13275146484375
F-60.0
F2.0
tp2827
bag397
(F959.627685546875
F-60.0
F2.0
tp2828
Rp2829
((dp2830
F959.627685546875
F-60.0
F2.0
tp2831
bag397
(F960.11029052734375
F-60.0
F2.0
tp2832
Rp2833
((dp2834
F960.11029052734375
F-60.0
F2.0
tp2835
bag397
(F960.60784912109375
F-60.0
F2.0
tp2836
Rp2837
((dp2838
F960.60784912109375
F-60.0
F2.0
tp2839
bag397
(F961.093017578125
F-60.0
F2.0
tp2840
Rp2841
((dp2842
F961.093017578125
F-60.0
F2.0
tp2843
bag397
(F961.59307861328125
F-60.0
F2.0
tp2844
Rp2845
((dp2846
F961.59307861328125
F-60.0
F2.0
tp2847
bag397
(F962.0806884765625
F-60.0
F2.0
tp2848
Rp2849
((dp2850
F962.0806884765625
F-60.0
F2.0
tp2851
bag397
(F962.55615234375
F-60.0
F2.0
tp2852
Rp2853
((dp2854
F962.55615234375
F-60.0
F2.0
tp2855
bag397
(F963.04669189453125
F-60.0
F2.0
tp2856
Rp2857
((dp2858
F963.04669189453125
F-60.0
F2.0
tp2859
bag397
(F963.5250244140625
F-60.0
F2.0
tp2860
Rp2861
((dp2862
F963.5250244140625
F-60.0
F2.0
tp2863
bag397
(F964.0184326171875
F-60.0
F2.0
tp2864
Rp2865
((dp2866
F964.0184326171875
F-60.0
F2.0
tp2867
bag397
(F964.49951171875
F-60.0
F2.0
tp2868
Rp2869
((dp2870
F964.49951171875
F-60.0
F2.0
tp2871
bag397
(F964.99560546875
F-60.0
F2.0
tp2872
Rp2873
((dp2874
F964.99560546875
F-60.0
F2.0
tp2875
bag397
(F965.47930908203125
F-60.0
F2.0
tp2876
Rp2877
((dp2878
F965.47930908203125
F-60.0
F2.0
tp2879
bag397
(F965.9779052734375
F-60.0
F2.0
tp2880
Rp2881
((dp2882
F965.9779052734375
F-60.0
F2.0
tp2883
bag397
(F966.464111328125
F-60.0
F2.0
tp2884
Rp2885
((dp2886
F966.464111328125
F-60.0
F2.0
tp2887
bag397
(F966.96514892578125
F-60.0
F2.0
tp2888
Rp2889
((dp2890
F966.96514892578125
F-60.0
F2.0
tp2891
bag397
(F967.4537353515625
F-60.0
F2.0
tp2892
Rp2893
((dp2894
F967.4537353515625
F-60.0
F2.0
tp2895
bag397
(F967.95709228515625
F-60.0
F2.0
tp2896
Rp2897
((dp2898
F967.95709228515625
F-60.0
F2.0
tp2899
bag397
(F968.44793701171875
F-60.0
F2.0
tp2900
Rp2901
((dp2902
F968.44793701171875
F-60.0
F2.0
tp2903
bag397
(F968.926513671875
F-60.0
F2.0
tp2904
Rp2905
((dp2906
F968.926513671875
F-60.0
F2.0
tp2907
bag397
(F969.420166015625
F-60.0
F2.0
tp2908
Rp2909
((dp2910
F969.420166015625
F-60.0
F2.0
tp2911
bag397
(F969.9014892578125
F-60.0
F2.0
tp2912
Rp2913
((dp2914
F969.9014892578125
F-60.0
F2.0
tp2915
bag397
(F970.3978271484375
F-60.0
F2.0
tp2916
Rp2917
((dp2918
F970.3978271484375
F-60.0
F2.0
tp2919
bag397
(F970.88177490234375
F-60.0
F2.0
tp2920
Rp2921
((dp2922
F970.88177490234375
F-60.0
F2.0
tp2923
bag397
(F971.380615234375
F-60.0
F2.0
tp2924
Rp2925
((dp2926
F971.380615234375
F-60.0
F2.0
tp2927
bag397
(F971.8670654296875
F-60.0
F2.0
tp2928
Rp2929
((dp2930
F971.8670654296875
F-60.0
F2.0
tp2931
bag397
(F972.34136962890625
F-60.0
F2.0
tp2932
Rp2933
((dp2934
F972.34136962890625
F-60.0
F2.0
tp2935
bag397
(F972.80389404296875
F-60.0
F2.0
tp2936
Rp2937
((dp2938
F972.80389404296875
F-60.0
F2.0
tp2939
bag397
(F973.2548828125
F-60.0
F2.0
tp2940
Rp2941
((dp2942
F973.2548828125
F-60.0
F2.0
tp2943
bag397
(F973.69464111328125
F-60.0
F2.0
tp2944
Rp2945
((dp2946
F973.69464111328125
F-60.0
F2.0
tp2947
bag397
(F974.12347412109375
F-60.0
F2.0
tp2948
Rp2949
((dp2950
F974.12347412109375
F-60.0
F2.0
tp2951
bag397
(F974.5416259765625
F-60.0
F2.0
tp2952
Rp2953
((dp2954
F974.5416259765625
F-60.0
F2.0
tp2955
bag397
(F974.9493408203125
F-60.0
F2.0
tp2956
Rp2957
((dp2958
F974.9493408203125
F-60.0
F2.0
tp2959
bag397
(F975.346923828125
F-60.0
F2.0
tp2960
Rp2961
((dp2962
F975.346923828125
F-60.0
F2.0
tp2963
bag397
(F975.734619140625
F-60.0
F2.0
tp2964
Rp2965
((dp2966
F975.734619140625
F-60.0
F2.0
tp2967
bag397
(F976.11260986328125
F-60.0
F2.0
tp2968
Rp2969
((dp2970
F976.11260986328125
F-60.0
F2.0
tp2971
bag397
(F976.481201171875
F-60.0
F2.0
tp2972
Rp2973
((dp2974
F976.481201171875
F-60.0
F2.0
tp2975
bag397
(F976.84063720703125
F-60.0
F2.0
tp2976
Rp2977
((dp2978
F976.84063720703125
F-60.0
F2.0
tp2979
bag397
(F977.19110107421875
F-60.0
F2.0
tp2980
Rp2981
((dp2982
F977.19110107421875
F-60.0
F2.0
tp2983
bag397
(F977.5328369140625
F-60.0
F2.0
tp2984
Rp2985
((dp2986
F977.5328369140625
F-60.0
F2.0
tp2987
bag397
(F977.8660888671875
F-60.0
F2.0
tp2988
Rp2989
((dp2990
F977.8660888671875
F-60.0
F2.0
tp2991
bag397
(F978.1910400390625
F-60.0
F2.0
tp2992
Rp2993
((dp2994
F978.1910400390625
F-60.0
F2.0
tp2995
bag397
(F978.50787353515625
F-60.0
F2.0
tp2996
Rp2997
((dp2998
F978.50787353515625
F-60.0
F2.0
tp2999
bag397
(F978.81683349609375
F-60.0
F2.0
tp3000
Rp3001
((dp3002
F978.81683349609375
F-60.0
F2.0
tp3003
bag397
(F979.11810302734375
F-60.0
F2.0
tp3004
Rp3005
((dp3006
F979.11810302734375
F-60.0
F2.0
tp3007
bag397
(F979.411865234375
F-60.0
F2.0
tp3008
Rp3009
((dp3010
F979.411865234375
F-60.0
F2.0
tp3011
bag397
(F979.69830322265625
F-60.0
F2.0
tp3012
Rp3013
((dp3014
F979.69830322265625
F-60.0
F2.0
tp3015
bag397
(F979.97760009765625
F-60.0
F2.0
tp3016
Rp3017
((dp3018
F979.97760009765625
F-60.0
F2.0
tp3019
bag397
(F980.24993896484375
F-60.0
F2.0
tp3020
Rp3021
((dp3022
F980.24993896484375
F-60.0
F2.0
tp3023
bag397
(F980.5155029296875
F-60.0
F2.0
tp3024
Rp3025
((dp3026
F980.5155029296875
F-60.0
F2.0
tp3027
bag397
(F980.77447509765625
F-60.0
F2.0
tp3028
Rp3029
((dp3030
F980.77447509765625
F-60.0
F2.0
tp3031
bag397
(F981.0269775390625
F-60.0
F2.0
tp3032
Rp3033
((dp3034
F981.0269775390625
F-60.0
F2.0
tp3035
bag397
(F981.273193359375
F-60.0
F2.0
tp3036
Rp3037
((dp3038
F981.273193359375
F-60.0
F2.0
tp3039
bag397
(F981.5133056640625
F-60.0
F2.0
tp3040
Rp3041
((dp3042
F981.5133056640625
F-60.0
F2.0
tp3043
bag397
(F981.7474365234375
F-60.0
F2.0
tp3044
Rp3045
((dp3046
F981.7474365234375
F-60.0
F2.0
tp3047
bag397
(F981.9757080078125
F-60.0
F2.0
tp3048
Rp3049
((dp3050
F981.9757080078125
F-60.0
F2.0
tp3051
bag397
(F982.19830322265625
F-60.0
F2.0
tp3052
Rp3053
((dp3054
F982.19830322265625
F-60.0
F2.0
tp3055
bag397
(F982.41534423828125
F-60.0
F2.0
tp3056
Rp3057
((dp3058
F982.41534423828125
F-60.0
F2.0
tp3059
bag397
(F982.62701416015625
F-60.0
F2.0
tp3060
Rp3061
((dp3062
F982.62701416015625
F-60.0
F2.0
tp3063
bag397
(F982.83343505859375
F-60.0
F2.0
tp3064
Rp3065
((dp3066
F982.83343505859375
F-60.0
F2.0
tp3067
bag397
(F983.03466796875
F-60.0
F2.0
tp3068
Rp3069
((dp3070
F983.03466796875
F-60.0
F2.0
tp3071
bag397
(F983.23089599609375
F-60.0
F2.0
tp3072
Rp3073
((dp3074
F983.23089599609375
F-60.0
F2.0
tp3075
bag397
(F983.4222412109375
F-60.0
F2.0
tp3076
Rp3077
((dp3078
F983.4222412109375
F-60.0
F2.0
tp3079
bag397
(F983.60882568359375
F-60.0
F2.0
tp3080
Rp3081
((dp3082
F983.60882568359375
F-60.0
F2.0
tp3083
bag397
(F983.790771484375
F-60.0
F2.0
tp3084
Rp3085
((dp3086
F983.790771484375
F-60.0
F2.0
tp3087
bag397
(F983.96820068359375
F-60.0
F2.0
tp3088
Rp3089
((dp3090
F983.96820068359375
F-60.0
F2.0
tp3091
bag397
(F984.14117431640625
F-60.0
F2.0
tp3092
Rp3093
((dp3094
F984.14117431640625
F-60.0
F2.0
tp3095
bag397
(F984.30987548828125
F-60.0
F2.0
tp3096
Rp3097
((dp3098
F984.30987548828125
F-60.0
F2.0
tp3099
bag397
(F984.474365234375
F-60.0
F2.0
tp3100
Rp3101
((dp3102
F984.474365234375
F-60.0
F2.0
tp3103
bag397
(F984.634765625
F-60.0
F2.0
tp3104
Rp3105
((dp3106
F984.634765625
F-60.0
F2.0
tp3107
bag397
(F984.7911376953125
F-60.0
F2.0
tp3108
Rp3109
((dp3110
F984.7911376953125
F-60.0
F2.0
tp3111
bag397
(F984.94366455078125
F-60.0
F2.0
tp3112
Rp3113
((dp3114
F984.94366455078125
F-60.0
F2.0
tp3115
bag397
(F985.09234619140625
F-60.0
F2.0
tp3116
Rp3117
((dp3118
F985.09234619140625
F-60.0
F2.0
tp3119
bag397
(F985.23736572265625
F-60.0
F2.0
tp3120
Rp3121
((dp3122
F985.23736572265625
F-60.0
F2.0
tp3123
bag397
(F985.3787841796875
F-60.0
F2.0
tp3124
Rp3125
((dp3126
F985.3787841796875
F-60.0
F2.0
tp3127
bag397
(F985.51666259765625
F-60.0
F2.0
tp3128
Rp3129
((dp3130
F985.51666259765625
F-60.0
F2.0
tp3131
bag397
(F985.651123046875
F-60.0
F2.0
tp3132
Rp3133
((dp3134
F985.651123046875
F-60.0
F2.0
tp3135
bag397
(F985.7822265625
F-60.0
F2.0
tp3136
Rp3137
((dp3138
F985.7822265625
F-60.0
F2.0
tp3139
bag397
(F985.9100341796875
F-60.0
F2.0
tp3140
Rp3141
((dp3142
F985.9100341796875
F-60.0
F2.0
tp3143
bag397
(F986.03466796875
F-60.0
F2.0
tp3144
Rp3145
((dp3146
F986.03466796875
F-60.0
F2.0
tp3147
bag397
(F986.15618896484375
F-60.0
F2.0
tp3148
Rp3149
((dp3150
F986.15618896484375
F-60.0
F2.0
tp3151
bag397
(F986.27471923828125
F-60.0
F2.0
tp3152
Rp3153
((dp3154
F986.27471923828125
F-60.0
F2.0
tp3155
bag397
(F986.3902587890625
F-60.0
F2.0
tp3156
Rp3157
((dp3158
F986.3902587890625
F-60.0
F2.0
tp3159
bag397
(F986.5029296875
F-60.0
F2.0
tp3160
Rp3161
((dp3162
F986.5029296875
F-60.0
F2.0
tp3163
bag397
(F986.61279296875
F-60.0
F2.0
tp3164
Rp3165
((dp3166
F986.61279296875
F-60.0
F2.0
tp3167
bag397
(F986.71990966796875
F-60.0
F2.0
tp3168
Rp3169
((dp3170
F986.71990966796875
F-60.0
F2.0
tp3171
bag397
(F986.82440185546875
F-60.0
F2.0
tp3172
Rp3173
((dp3174
F986.82440185546875
F-60.0
F2.0
tp3175
bag397
(F986.92626953125
F-60.0
F2.0
tp3176
Rp3177
((dp3178
F986.92626953125
F-60.0
F2.0
tp3179
bag397
(F987.025634765625
F-60.0
F2.0
tp3180
Rp3181
((dp3182
F987.025634765625
F-60.0
F2.0
tp3183
bag397
(F987.12249755859375
F-60.0
F2.0
tp3184
Rp3185
((dp3186
F987.12249755859375
F-60.0
F2.0
tp3187
bag397
(F987.21697998046875
F-60.0
F2.0
tp3188
Rp3189
((dp3190
F987.21697998046875
F-60.0
F2.0
tp3191
bag397
(F987.30908203125
F-60.0
F2.0
tp3192
Rp3193
((dp3194
F987.30908203125
F-60.0
F2.0
tp3195
bag397
(F987.39886474609375
F-60.0
F2.0
tp3196
Rp3197
((dp3198
F987.39886474609375
F-60.0
F2.0
tp3199
bag397
(F987.4864501953125
F-60.0
F2.0
tp3200
Rp3201
((dp3202
F987.4864501953125
F-60.0
F2.0
tp3203
bag397
(F987.57183837890625
F-60.0
F2.0
tp3204
Rp3205
((dp3206
F987.57183837890625
F-60.0
F2.0
tp3207
bag397
(F987.65509033203125
F-60.0
F2.0
tp3208
Rp3209
((dp3210
F987.65509033203125
F-60.0
F2.0
tp3211
bag397
(F987.73626708984375
F-60.0
F2.0
tp3212
Rp3213
((dp3214
F987.73626708984375
F-60.0
F2.0
tp3215
bag397
(F987.8154296875
F-60.0
F2.0
tp3216
Rp3217
((dp3218
F987.8154296875
F-60.0
F2.0
tp3219
bag397
(F987.89263916015625
F-60.0
F2.0
tp3220
Rp3221
((dp3222
F987.89263916015625
F-60.0
F2.0
tp3223
bag397
(F987.9678955078125
F-60.0
F2.0
tp3224
Rp3225
((dp3226
F987.9678955078125
F-60.0
F2.0
tp3227
bag397
(F988.04132080078125
F-60.0
F2.0
tp3228
Rp3229
((dp3230
F988.04132080078125
F-60.0
F2.0
tp3231
bag397
(F988.1129150390625
F-60.0
F2.0
tp3232
Rp3233
((dp3234
F988.1129150390625
F-60.0
F2.0
tp3235
bag397
(F988.18267822265625
F-60.0
F2.0
tp3236
Rp3237
((dp3238
F988.18267822265625
F-60.0
F2.0
tp3239
bag397
(F988.250732421875
F-60.0
F2.0
tp3240
Rp3241
((dp3242
F988.250732421875
F-60.0
F2.0
tp3243
bag397
(F988.31707763671875
F-60.0
F2.0
tp3244
Rp3245
((dp3246
F988.31707763671875
F-60.0
F2.0
tp3247
bag397
(F988.38177490234375
F-60.0
F2.0
tp3248
Rp3249
((dp3250
F988.38177490234375
F-60.0
F2.0
tp3251
bag397
(F988.44488525390625
F-60.0
F2.0
tp3252
Rp3253
((dp3254
F988.44488525390625
F-60.0
F2.0
tp3255
bag397
(F988.50640869140625
F-60.0
F2.0
tp3256
Rp3257
((dp3258
F988.50640869140625
F-60.0
F2.0
tp3259
bag397
(F988.56640625
F-60.0
F2.0
tp3260
Rp3261
((dp3262
F988.56640625
F-60.0
F2.0
tp3263
bag397
(F988.6248779296875
F-60.0
F2.0
tp3264
Rp3265
((dp3266
F988.6248779296875
F-60.0
F2.0
tp3267
bag397
(F988.68194580078125
F-60.0
F2.0
tp3268
Rp3269
((dp3270
F988.68194580078125
F-60.0
F2.0
tp3271
bag397
(F988.737548828125
F-60.0
F2.0
tp3272
Rp3273
((dp3274
F988.737548828125
F-60.0
F2.0
tp3275
bag397
(F988.79180908203125
F-60.0
F2.0
tp3276
Rp3277
((dp3278
F988.79180908203125
F-60.0
F2.0
tp3279
bag397
(F988.84466552734375
F-60.0
F2.0
tp3280
Rp3281
((dp3282
F988.84466552734375
F-60.0
F2.0
tp3283
bag397
(F988.896240234375
F-60.0
F2.0
tp3284
Rp3285
((dp3286
F988.896240234375
F-60.0
F2.0
tp3287
bag397
(F988.946533203125
F-60.0
F2.0
tp3288
Rp3289
((dp3290
F988.946533203125
F-60.0
F2.0
tp3291
bag397
(F988.99554443359375
F-60.0
F2.0
tp3292
Rp3293
((dp3294
F988.99554443359375
F-60.0
F2.0
tp3295
bag397
(F989.0433349609375
F-60.0
F2.0
tp3296
Rp3297
((dp3298
F989.0433349609375
F-60.0
F2.0
tp3299
bag397
(F989.0899658203125
F-60.0
F2.0
tp3300
Rp3301
((dp3302
F989.0899658203125
F-60.0
F2.0
tp3303
bag397
(F989.13543701171875
F-60.0
F2.0
tp3304
Rp3305
((dp3306
F989.13543701171875
F-60.0
F2.0
tp3307
bag397
(F989.17974853515625
F-60.0
F2.0
tp3308
Rp3309
((dp3310
F989.17974853515625
F-60.0
F2.0
tp3311
bag397
(F989.22296142578125
F-60.0
F2.0
tp3312
Rp3313
((dp3314
F989.22296142578125
F-60.0
F2.0
tp3315
bag397
(F989.26513671875
F-60.0
F2.0
tp3316
Rp3317
((dp3318
F989.26513671875
F-60.0
F2.0
tp3319
bag397
(F989.30621337890625
F-60.0
F2.0
tp3320
Rp3321
((dp3322
F989.30621337890625
F-60.0
F2.0
tp3323
bag397
(F989.3463134765625
F-60.0
F2.0
tp3324
Rp3325
((dp3326
F989.3463134765625
F-60.0
F2.0
tp3327
bag397
(F989.3853759765625
F-60.0
F2.0
tp3328
Rp3329
((dp3330
F989.3853759765625
F-60.0
F2.0
tp3331
bag397
(F989.4234619140625
F-60.0
F2.0
tp3332
Rp3333
((dp3334
F989.4234619140625
F-60.0
F2.0
tp3335
bag397
(F989.46063232421875
F-60.0
F2.0
tp3336
Rp3337
((dp3338
F989.46063232421875
F-60.0
F2.0
tp3339
bag397
(F989.49688720703125
F-60.0
F2.0
tp3340
Rp3341
((dp3342
F989.49688720703125
F-60.0
F2.0
tp3343
bag397
(F989.5322265625
F-60.0
F2.0
tp3344
Rp3345
((dp3346
F989.5322265625
F-60.0
F2.0
tp3347
bag397
(F989.566650390625
F-60.0
F2.0
tp3348
Rp3349
((dp3350
F989.566650390625
F-60.0
F2.0
tp3351
bag397
(F989.6002197265625
F-60.0
F2.0
tp3352
Rp3353
((dp3354
F989.6002197265625
F-60.0
F2.0
tp3355
bag397
(F989.63299560546875
F-60.0
F2.0
tp3356
Rp3357
((dp3358
F989.63299560546875
F-60.0
F2.0
tp3359
bag397
(F989.6649169921875
F-60.0
F2.0
tp3360
Rp3361
((dp3362
F989.6649169921875
F-60.0
F2.0
tp3363
bag397
(F989.696044921875
F-60.0
F2.0
tp3364
Rp3365
((dp3366
F989.696044921875
F-60.0
F2.0
tp3367
bag397
(F989.7264404296875
F-60.0
F2.0
tp3368
Rp3369
((dp3370
F989.7264404296875
F-60.0
F2.0
tp3371
bag397
(F989.75604248046875
F-60.0
F2.0
tp3372
Rp3373
((dp3374
F989.75604248046875
F-60.0
F2.0
tp3375
bag397
(F989.784912109375
F-60.0
F2.0
tp3376
Rp3377
((dp3378
F989.784912109375
F-60.0
F2.0
tp3379
bag397
(F989.81304931640625
F-60.0
F2.0
tp3380
Rp3381
((dp3382
F989.81304931640625
F-60.0
F2.0
tp3383
bag397
(F989.84051513671875
F-60.0
F2.0
tp3384
Rp3385
((dp3386
F989.84051513671875
F-60.0
F2.0
tp3387
bag397
(F989.8673095703125
F-60.0
F2.0
tp3388
Rp3389
((dp3390
F989.8673095703125
F-60.0
F2.0
tp3391
bag397
(F989.8934326171875
F-60.0
F2.0
tp3392
Rp3393
((dp3394
F989.8934326171875
F-60.0
F2.0
tp3395
bag397
(F989.91888427734375
F-60.0
F2.0
tp3396
Rp3397
((dp3398
F989.91888427734375
F-60.0
F2.0
tp3399
bag397
(F989.9437255859375
F-60.0
F2.0
tp3400
Rp3401
((dp3402
F989.9437255859375
F-60.0
F2.0
tp3403
bag397
(F989.96795654296875
F-60.0
F2.0
tp3404
Rp3405
((dp3406
F989.96795654296875
F-60.0
F2.0
tp3407
bag397
(F989.9915771484375
F-60.0
F2.0
tp3408
Rp3409
((dp3410
F989.9915771484375
F-60.0
F2.0
tp3411
bag397
(F990.01458740234375
F-60.0
F2.0
tp3412
Rp3413
((dp3414
F990.01458740234375
F-60.0
F2.0
tp3415
bag397
(F990.03704833984375
F-60.0
F2.0
tp3416
Rp3417
((dp3418
F990.03704833984375
F-60.0
F2.0
tp3419
bag397
(F990.05889892578125
F-60.0
F2.0
tp3420
Rp3421
((dp3422
F990.05889892578125
F-60.0
F2.0
tp3423
bag397
(F990.08026123046875
F-60.0
F2.0
tp3424
Rp3425
((dp3426
F990.08026123046875
F-60.0
F2.0
tp3427
bag397
(F990.10107421875
F-60.0
F2.0
tp3428
Rp3429
((dp3430
F990.10107421875
F-60.0
F2.0
tp3431
bag397
(F990.121337890625
F-60.0
F2.0
tp3432
Rp3433
((dp3434
F990.121337890625
F-60.0
F2.0
tp3435
bag397
(F990.14111328125
F-60.0
F2.0
tp3436
Rp3437
((dp3438
F990.14111328125
F-60.0
F2.0
tp3439
bag397
(F990.160400390625
F-60.0
F2.0
tp3440
Rp3441
((dp3442
F990.160400390625
F-60.0
F2.0
tp3443
bag397
(F990.17919921875
F-60.0
F2.0
tp3444
Rp3445
((dp3446
F990.17919921875
F-60.0
F2.0
tp3447
bag397
(F990.197509765625
F-60.0
F2.0
tp3448
Rp3449
((dp3450
F990.197509765625
F-60.0
F2.0
tp3451
bag397
(F990.21539306640625
F-60.0
F2.0
tp3452
Rp3453
((dp3454
F990.21539306640625
F-60.0
F2.0
tp3455
bag397
(F990.23284912109375
F-60.0
F2.0
tp3456
Rp3457
((dp3458
F990.23284912109375
F-60.0
F2.0
tp3459
bag397
(F990.2498779296875
F-60.0
F2.0
tp3460
Rp3461
((dp3462
F990.2498779296875
F-60.0
F2.0
tp3463
bag397
(F990.2664794921875
F-60.0
F2.0
tp3464
Rp3465
((dp3466
F990.2664794921875
F-60.0
F2.0
tp3467
bag397
(F990.28265380859375
F-60.0
F2.0
tp3468
Rp3469
((dp3470
F990.28265380859375
F-60.0
F2.0
tp3471
bag397
(F990.29840087890625
F-60.0
F2.0
tp3472
Rp3473
((dp3474
F990.29840087890625
F-60.0
F2.0
tp3475
bag397
(F990.31378173828125
F-60.0
F2.0
tp3476
Rp3477
((dp3478
F990.31378173828125
F-60.0
F2.0
tp3479
bag397
(F990.32879638671875
F-60.0
F2.0
tp3480
Rp3481
((dp3482
F990.32879638671875
F-60.0
F2.0
tp3483
bag397
(F990.3433837890625
F-60.0
F2.0
tp3484
Rp3485
((dp3486
F990.3433837890625
F-60.0
F2.0
tp3487
bag397
(F990.357666015625
F-60.0
F2.0
tp3488
Rp3489
((dp3490
F990.357666015625
F-60.0
F2.0
tp3491
bag397
(F990.37158203125
F-60.0
F2.0
tp3492
Rp3493
((dp3494
F990.37158203125
F-60.0
F2.0
tp3495
bag397
(F990.3851318359375
F-60.0
F2.0
tp3496
Rp3497
((dp3498
F990.3851318359375
F-60.0
F2.0
tp3499
bag397
(F990.39837646484375
F-60.0
F2.0
tp3500
Rp3501
((dp3502
F990.39837646484375
F-60.0
F2.0
tp3503
bag397
(F990.4112548828125
F-60.0
F2.0
tp3504
Rp3505
((dp3506
F990.4112548828125
F-60.0
F2.0
tp3507
bag397
(F990.423828125
F-60.0
F2.0
tp3508
Rp3509
((dp3510
F990.423828125
F-60.0
F2.0
tp3511
bag397
(F990.43609619140625
F-60.0
F2.0
tp3512
Rp3513
((dp3514
F990.43609619140625
F-60.0
F2.0
tp3515
bag397
(F990.44805908203125
F-60.0
F2.0
tp3516
Rp3517
((dp3518
F990.44805908203125
F-60.0
F2.0
tp3519
basS'sensors'
p3520
(lp3521
(lp3522
F-1.0
aF-1.0
aF-1.0
aF-1.0
aF-0.57331365131340628
aF1.0
aF-1.0
aF-1.0
aF0.0
aF0.0
aF0.0
aF0.0
aF0.0
aF1.0
aa(lp3523
F-1.0
aF-1.0
aF-1.0
aF-1.0
aF-0.71454244421287894
aF1.0
aF-1.0
aF-1.0
aF0.0
aF0.0
aF0.0
aF0.0
aF0.0
aF1.0
aa(lp3524
F-1.0
aF-1.0
aF-1.0
aF-1.0
aF-0.84023815340818908
aF1.0
aF-1.0
aF-1.0
aF0.0
aF0.0
aF0.0
aF0.0
aF0.0
aF1.0
aa(lp3525
F-1.0
aF-1.0
aF-1.0
aF-1.0
aF-0.95282939508422537
aF1.0
aF-1.0
aF-1.0
aF0.0
aF0.0
aF0.0
aF0.0
aF0.0
aF1.0
aa(lp3526
F-1.0
aF-1.0
aF-1.0
aF-1.0
aF-1.0
aF1.0
aF-0.94262590611280317
aF-1.0
aF0.0
aF0.0
aF0.0
aF0.0
aF0.0
aF1.0
aa(lp3527
F-1.0
aF-1.0
aF-1.0
aF-1.0
aF-1.0
aF1.0
aF-0.82887868491674044
aF-1.0
aF0.0
aF0.0
aF0.0
aF0.0
aF0.0
aF1.0
aa(lp3528
F-1.0
aF-1.0
aF-1.0
aF-1.0
aF-1.0
aF1.0
aF-0.70181786394831169
aF-1.0
aF0.0
aF0.0
aF0.0
aF0.0
aF0.0
aF1.0
aa(lp3529
F-1.0
aF-1.0
aF-1.0
aF-1.0
aF-1.0
aF1.0
aF-0.55896397748448867
aF-1.0
aF0.0
aF0.0
aF0.0
aF0.0
aF0.0
aF1.0
aa(lp3530
F-1.0
aF-1.0
aF-1.0
aF-1.0
aF-1.0
aF1.0
aF-0.39716840664034303
aF-1.0
aF0.0
aF0.0
aF0.0
aF0.0
aF0.0
aF1.0
aa(lp3531
F-1.0
aF-1.0
aF-1.0
aF-1.0
aF-1.0
aF1.0
aF-0.21240493327907961
aF-1.0
aF0.0
aF0.0
aF0.0
aF0.0
aF0.0
aF1.0
aa(lp3532
F-1.0
aF-1.0
aF-1.0
aF-1.0
aF-1.0
aF1.0
aF0.0005922058588812007
aF-1.0
aF0.0
aF0.0
aF0.0
aF0.0
aF0.0
aF1.0
aa(lp3533
F-1.0
aF-1.0
aF-1.0
aF-1.0
aF-1.0
aF1.0
aF0.24883457844291312
aF-1.0
aF0.0
aF0.0
aF0.0
aF0.0
aF0.0
aF1.0
aa(lp3534
F-1.0
aF-1.0
aF-1.0
aF-1.0
aF-1.0
aF1.0
aF0.54185558051488658
aF-1.0
aF0.0
aF0.0
aF0.0
aF0.0
aF0.0
aF1.0
aa(lp3535
F-1.0
aF-1.0
aF-1.0
aF-1.0
aF-1.0
aF1.0
aF0.89296969244082236
aF-1.0
aF0.0
aF0.0
aF0.0
aF0.0
aF0.0
aF1.0
aa(lp3536
F-1.0
aF-1.0
aF-1.0
aF-1.0
aF-1.0
aF0.72312680875497515
aF1.0
aF-1.0
aF0.0
aF0.0
aF0.0
aF0.0
aF0.0
aF1.0
aa(lp3537
F-1.0
aF-1.0
aF-1.0
aF-1.0
aF-1.0
aF0.40070927735727491
aF1.0
aF-1.0
aF0.0
aF0.0
aF0.0
aF0.0
aF0.0
aF1.0
aa(lp3538
F-1.0
aF-1.0
aF-1.0
aF-1.0
aF-1.0
aF0.12968316715890649
aF1.0
aF-1.0
aF0.0
aF0.0
aF0.0
aF0.0
aF0.0
aF1.0
aa(lp3539
F-1.0
aF-1.0
aF-1.0
aF-1.0
aF-1.0
aF-0.10132992029628218
aF1.0
aF-1.0
aF0.0
aF0.0
aF0.0
aF0.0
aF0.0
aF1.0
aa(lp3540
F-1.0
aF-1.0
aF-1.0
aF-1.0
aF-1.0
aF-0.30058593795121535
aF1.0
aF-1.0
aF0.0
aF0.0
aF0.0
aF0.0
aF0.0
aF1.0
aa(lp3541
F-1.0
aF-1.0
aF-1.0
aF-1.0
aF-1.0
aF-0.4742080960321029
aF1.0
aF-1.0
aF0.0
aF0.0
aF0.0
aF0.0
aF0.0
aF1.0
aa(lp3542
F-1.0
aF-1.0
aF-1.0
aF-1.0
aF-1.0
aF-0.62684683186633983
aF1.0
aF-1.0
aF0.0
aF0.0
aF0.0
aF0.0
aF0.0
aF1.0
aa(lp3543
F-1.0
aF-1.0
aF-1.0
aF-1.0
aF-1.0
aF-0.76208765415139512
aF1.0
aF-1.0
aF0.0
aF0.0
aF0.0
aF0.0
aF0.0
aF1.0
aa(lp3544
F-1.0
aF-1.0
aF-1.0
aF-1.0
aF-1.0
aF-0.88274554008283768
aF1.0
aF-1.0
aF0.0
aF0.0
aF0.0
aF0.0
aF0.0
aF1.0
aa(lp3545
F-1.0
aF-1.0
aF-1.0
aF-1.0
aF-1.0
aF-0.99105918934760806
aF1.0
aF-1.0
aF0.0
aF0.0
aF0.0
aF0.0
aF0.0
aF1.0
aa(lp3546
F-1.0
aF-1.0
aF-1.0
aF-1.0
aF-1.0
aF-1.0
aF1.0
aF-0.90251057118403188
aF0.0
aF0.0
aF0.0
aF0.0
aF0.0
aF1.0
aa(lp3547
F-1.0
aF-1.0
aF-1.0
aF-1.0
aF-1.0
aF-1.0
aF1.0
aF-0.78415846953271195
aF0.0
aF0.0
aF0.0
aF0.0
aF0.0
aF1.0
aa(lp3548
F-1.0
aF-1.0
aF-1.0
aF-1.0
aF-1.0
aF-1.0
aF1.0
aF-0.65164876722243315
aF0.0
aF0.0
aF0.0
aF0.0
aF0.0
aF1.0
aa(lp3549
F-1.0
aF-1.0
aF-1.0
aF-1.0
aF-1.0
aF-1.0
aF1.0
aF-0.50228476318039417
aF0.0
aF0.0
aF0.0
aF0.0
aF0.0
aF1.0
aa(lp3550
F-1.0
aF-1.0
aF-1.0
aF-1.0
aF-1.0
aF-1.0
aF1.0
aF-0.33263117951620857
aF0.0
aF0.0
aF0.0
aF0.0
aF0.0
aF1.0
aa(lp3551
F-1.0
aF-1.0
aF-1.0
aF-1.0
aF-1.0
aF-1.0
aF1.0
aF-0.13825032406317561
aF0.0
aF0.0
aF0.0
aF0.0
aF0.0
aF1.0
aa(lp3552
F-1.0
aF-1.0
aF-1.0
aF-1.0
aF-1.0
aF-1.0
aF1.0
aF0.086687914415536804
aF0.0
aF0.0
aF0.0
aF0.0
aF0.0
aF1.0
aa(lp3553
F-1.0
aF-1.0
aF-1.0
aF-1.0
aF-1.0
aF-1.0
aF1.0
aF0.3500071734679846
aF0.0
aF0.0
aF0.0
aF0.0
aF0.0
aF1.0
aa(lp3554
F-1.0
aF-1.0
aF-1.0
aF-1.0
aF-1.0
aF-1.0
aF1.0
aF0.66244057313355342
aF0.0
aF0.0
aF0.0
aF0.0
aF0.0
aF1.0
aa(lp3555
F-1.0
aF-1.0
aF-1.0
aF-1.0
aF-1.0
aF-1.0
aF0.95923966039777175
aF1.0
aF0.0
aF0.0
aF0.0
aF0.0
aF0.0
aF1.0
aa(lp3556
F-1.0
aF-1.0
aF-1.0
aF-1.0
aF-1.0
aF-1.0
aF0.59487456824706619
aF1.0
aF0.0
aF0.0
aF0.0
aF0.0
aF0.0
aF1.0
aa(lp3557
F-1.0
aF-1.0
aF-1.0
aF-1.0
aF-1.0
aF-1.0
aF0.29210169390658436
aF1.0
aF0.0
aF0.0
aF0.0
aF0.0
aF0.0
aF1.0
aa(lp3558
F-1.0
aF-1.0
aF-1.0
aF-1.0
aF-1.0
aF-1.0
aF0.036520753990804788
aF1.0
aF0.0
aF0.0
aF0.0
aF0.0
aF0.0
aF1.0
aa(lp3559
F-1.0
aF-1.0
aF-1.0
aF-1.0
aF-1.0
aF-1.0
aF-0.18210765979227073
aF1.0
aF0.0
aF0.0
aF0.0
aF0.0
aF0.0
aF1.0
aa(lp3560
F-1.0
aF-1.0
aF-1.0
aF-1.0
aF-1.0
aF-1.0
aF-0.37125715617378208
aF1.0
aF0.0
aF0.0
aF0.0
aF0.0
aF0.0
aF1.0
aa(lp3561
F-1.0
aF-1.0
aF-1.0
aF-1.0
aF-1.0
aF-1.0
aF-0.53651253224916773
aF1.0
aF0.0
aF0.0
aF0.0
aF0.0
aF0.0
aF1.0
aa(lp3562
F-1.0
aF-1.0
aF-1.0
aF-1.0
aF-1.0
aF-1.0
aF-0.68213377105817052
aF1.0
aF0.0
aF0.0
aF0.0
aF0.0
aF0.0
aF1.0
aa(lp3563
F-1.0
aF-1.0
aF-1.0
aF-1.0
aF-1.0
aF-1.0
aF-0.81142399864296499
aF1.0
aF0.0
aF0.0
aF0.0
aF0.0
aF0.0
aF1.0
aa(lp3564
F-1.0
aF-1.0
aF-1.0
aF-1.0
aF-1.0
aF-1.0
aF-0.92698540146863051
aF1.0
aF0.0
aF0.0
aF0.0
aF0.0
aF0.0
aF1.0
aa(lp3565
F-1.0
aF-1.0
aF-1.0
aF-0.96811910461503603
aF-1.0
aF-1.0
aF-1.0
aF1.0
aF0.0
aF0.0
aF0.0
aF0.0
aF0.0
aF1.0
aa(lp3566
F-1.0
aF-1.0
aF-1.0
aF-0.85735838237762652
aF-1.0
aF-1.0
aF-1.0
aF1.0
aF0.0
aF0.0
aF0.0
aF0.0
aF0.0
aF1.0
aa(lp3567
F-1.0
aF-1.0
aF-1.0
aF-0.73390254220004003
aF-1.0
aF-1.0
aF-1.0
aF1.0
aF0.0
aF0.0
aF0.0
aF0.0
aF0.0
aF1.0
aa(lp3568
F-1.0
aF-1.0
aF-1.0
aF-0.59543174000285037
aF-1.0
aF-1.0
aF-1.0
aF1.0
aF0.0
aF0.0
aF0.0
aF0.0
aF0.0
aF1.0
aa(lp3569
F-1.0
aF-1.0
aF-1.0
aF-0.43902667007772456
aF-1.0
aF-1.0
aF-1.0
aF1.0
aF0.0
aF0.0
aF0.0
aF0.0
aF0.0
aF1.0
aa(lp3570
F-1.0
aF-1.0
aF-1.0
aF-0.26095966691979056
aF-1.0
aF-1.0
aF-1.0
aF1.0
aF0.0
aF0.0
aF0.0
aF0.0
aF0.0
aF1.0
aa(lp3571
F-1.0
aF-1.0
aF-1.0
aF-0.056390022461415223
aF-1.0
aF-1.0
aF-1.0
aF1.0
aF0.0
aF0.0
aF0.0
aF0.0
aF0.0
aF1.0
aa(lp3572
F-1.0
aF-1.0
aF-1.0
aF0.18107920085367213
aF-1.0
aF-1.0
aF-1.0
aF1.0
aF0.0
aF0.0
aF0.0
aF0.0
aF0.0
aF1.0
aa(lp3573
F-1.0
aF-1.0
aF-1.0
aF0.46008409381483273
aF-1.0
aF-1.0
aF-1.0
aF1.0
aF0.0
aF0.0
aF0.0
aF0.0
aF0.0
aF1.0
aa(lp3574
F-1.0
aF-1.0
aF-1.0
aF0.7925753846246324
aF-1.0
aF-1.0
aF-1.0
aF1.0
aF0.0
aF0.0
aF0.0
aF0.0
aF0.0
aF1.0
aa(lp3575
F-1.0
aF-1.0
aF-1.0
aF1.0
aF-1.0
aF-1.0
aF-1.0
aF0.82184600751522097
aF0.0
aF0.0
aF0.0
aF0.0
aF0.0
aF1.0
aa(lp3576
F-1.0
aF-1.0
aF-1.0
aF1.0
aF-1.0
aF-1.0
aF-1.0
aF0.48467974837997319
aF0.0
aF0.0
aF0.0
aF0.0
aF0.0
aF1.0
aa(lp3577
F-1.0
aF-1.0
aF-1.0
aF1.0
aF-1.0
aF-1.0
aF-1.0
aF0.20227670434379785
aF0.0
aF0.0
aF0.0
aF0.0
aF0.0
aF1.0
aa(lp3578
F-1.0
aF-1.0
aF-1.0
aF1.0
aF-1.0
aF-1.0
aF-1.0
aF-0.037709264474594106
aF0.0
aF0.0
aF0.0
aF0.0
aF0.0
aF1.0
aa(lp3579
F-1.0
aF-1.0
aF-1.0
aF1.0
aF-1.0
aF-1.0
aF-1.0
aF-0.24417161138750221
aF0.0
aF0.0
aF0.0
aF0.0
aF0.0
aF1.0
aa(lp3580
F-1.0
aF-1.0
aF-1.0
aF1.0
aF-1.0
aF-1.0
aF-1.0
aF-0.42368140890264316
aF0.0
aF0.0
aF0.0
aF0.0
aF0.0
aF1.0
aa(lp3581
F-1.0
aF-1.0
aF-1.0
aF1.0
aF-1.0
aF-1.0
aF-1.0
aF-0.58119574721838707
aF0.0
aF0.0
aF0.0
aF0.0
aF0.0
aF1.0
aa(lp3582
F-1.0
aF-1.0
aF-1.0
aF1.0
aF-1.0
aF-1.0
aF-1.0
aF-0.7205278991769386
aF0.0
aF0.0
aF0.0
aF0.0
aF0.0
aF1.0
aa(lp3583
F-1.0
aF-1.0
aF-1.0
aF1.0
aF-1.0
aF-1.0
aF-1.0
aF-0.84465767170871886
aF0.0
aF0.0
aF0.0
aF0.0
aF0.0
aF1.0
aa(lp3584
F-1.0
aF-1.0
aF-1.0
aF1.0
aF-1.0
aF-1.0
aF-1.0
aF-0.95594698193503957
aF0.0
aF0.0
aF0.0
aF0.0
aF0.0
aF1.0
aa(lp3585
F-1.0
aF-1.0
aF-0.940713690870004
aF1.0
aF-1.0
aF-1.0
aF-1.0
aF-1.0
aF0.0
aF0.0
aF0.0
aF0.0
aF0.0
aF1.0
aa(lp3586
F-1.0
aF-1.0
aF-0.82865363730732244
aF1.0
aF-1.0
aF-1.0
aF-1.0
aF-1.0
aF0.0
aF0.0
aF0.0
aF0.0
aF0.0
aF1.0
aa(lp3587
F-1.0
aF-1.0
aF-0.70383724528363123
aF1.0
aF-1.0
aF-1.0
aF-1.0
aF-1.0
aF0.0
aF0.0
aF0.0
aF0.0
aF0.0
aF1.0
aa(lp3588
F-1.0
aF-1.0
aF-0.56394090491380866
aF1.0
aF-1.0
aF-1.0
aF-1.0
aF-1.0
aF0.0
aF0.0
aF0.0
aF0.0
aF0.0
aF1.0
aa(lp3589
F-1.0
aF-1.0
aF-0.40681039681893005
aF1.0
aF-1.0
aF-1.0
aF-1.0
aF-1.0
aF0.0
aF0.0
aF0.0
aF0.0
aF0.0
aF1.0
aa(lp3590
F-1.0
aF-1.0
aF-0.22824079191288182
aF1.0
aF-1.0
aF-1.0
aF-1.0
aF-1.0
aF0.0
aF0.0
aF0.0
aF0.0
aF0.0
aF1.0
aa(lp3591
F-1.0
aF-1.0
aF-0.024629015774109475
aF1.0
aF-1.0
aF-1.0
aF-1.0
aF-1.0
aF0.0
aF0.0
aF0.0
aF0.0
aF0.0
aF1.0
aa(lp3592
F-1.0
aF-1.0
aF0.21093966133634368
aF1.0
aF-1.0
aF-1.0
aF-1.0
aF-1.0
aF0.0
aF0.0
aF0.0
aF0.0
aF0.0
aF1.0
aa(lp3593
F-1.0
aF-1.0
aF0.48496510856939046
aF1.0
aF-1.0
aF-1.0
aF-1.0
aF-1.0
aF0.0
aF0.0
aF0.0
aF0.0
aF0.0
aF1.0
aa(lp3594
F-1.0
aF-1.0
aF0.8096711983539262
aF1.0
aF-1.0
aF-1.0
aF-1.0
aF-1.0
aF0.0
aF0.0
aF0.0
aF0.0
aF0.0
aF1.0
aa(lp3595
F-1.0
aF-1.0
aF1.0
aF0.81986759559961442
aF-1.0
aF-1.0
aF-1.0
aF-1.0
aF0.0
aF0.0
aF0.0
aF0.0
aF0.0
aF1.0
aa(lp3596
F-1.0
aF-1.0
aF1.0
aF0.49601549892441477
aF-1.0
aF-1.0
aF-1.0
aF-1.0
aF0.0
aF0.0
aF0.0
aF0.0
aF0.0
aF1.0
aa(lp3597
F-1.0
aF-1.0
aF1.0
aF0.22470210939302571
aF-1.0
aF-1.0
aF-1.0
aF-1.0
aF0.0
aF0.0
aF0.0
aF0.0
aF0.0
aF1.0
aa(lp3598
F-1.0
aF-1.0
aF1.0
aF-0.0073380402931925159
aF-1.0
aF-1.0
aF-1.0
aF-1.0
aF0.0
aF0.0
aF0.0
aF0.0
aF0.0
aF1.0
aa(lp3599
F-1.0
aF-1.0
aF1.0
aF-0.20811004557775115
aF-1.0
aF-1.0
aF-1.0
aF-1.0
aF0.0
aF0.0
aF0.0
aF0.0
aF0.0
aF1.0
aa(lp3600
F-1.0
aF-1.0
aF1.0
aF-0.38236790957110689
aF-1.0
aF-1.0
aF-1.0
aF-1.0
aF0.0
aF0.0
aF0.0
aF0.0
aF0.0
aF1.0
aa(lp3601
F-1.0
aF-1.0
aF1.0
aF-0.53611328914480016
aF-1.0
aF-1.0
aF-1.0
aF-1.0
aF0.0
aF0.0
aF0.0
aF0.0
aF0.0
aF1.0
aa(lp3602
F-1.0
aF-1.0
aF1.0
aF-0.67180464817116237
aF-1.0
aF-1.0
aF-1.0
aF-1.0
aF0.0
aF0.0
aF0.0
aF0.0
aF0.0
aF1.0
aa(lp3603
F-1.0
aF-1.0
aF1.0
aF-0.79335150371749752
aF-1.0
aF-1.0
aF-1.0
aF-1.0
aF0.0
aF0.0
aF0.0
aF0.0
aF0.0
aF1.0
aa(lp3604
F-1.0
aF-1.0
aF1.0
aF-0.90205033709129412
aF-1.0
aF-1.0
aF-1.0
aF-1.0
aF0.0
aF0.0
aF0.0
aF0.0
aF0.0
aF1.0
aa(lp3605
F-1.0
aF-0.99938628730646228
aF1.0
aF-1.0
aF-1.0
aF-1.0
aF-1.0
aF-1.0
aF0.0
aF0.0
aF0.0
aF0.0
aF0.0
aF1.0
aa(lp3606
F-1.0
aF-0.90145890997651523
aF1.0
aF-1.0
aF-1.0
aF-1.0
aF-1.0
aF-1.0
aF0.0
aF0.0
aF0.0
aF0.0
aF0.0
aF1.0
aa(lp3607
F-1.0
aF-0.79329170795817538
aF1.0
aF-1.0
aF-1.0
aF-1.0
aF-1.0
aF-1.0
aF0.0
aF0.0
aF0.0
aF0.0
aF0.0
aF1.0
aa(lp3608
F-1.0
aF-0.67314802873469659
aF1.0
aF-1.0
aF-1.0
aF-1.0
aF-1.0
aF-1.0
aF0.0
aF0.0
aF0.0
aF0.0
aF0.0
aF1.0
aa(lp3609
F-1.0
aF-0.54011388016391537
aF1.0
aF-1.0
aF-1.0
aF-1.0
aF-1.0
aF-1.0
aF0.0
aF0.0
aF0.0
aF0.0
aF0.0
aF1.0
aa(lp3610
F-1.0
aF-0.39056018688585969
aF1.0
aF-1.0
aF-1.0
aF-1.0
aF-1.0
aF-1.0
aF0.0
aF0.0
aF0.0
aF0.0
aF0.0
aF1.0
aa(lp3611
F-1.0
aF-0.22275630695838888
aF1.0
aF-1.0
aF-1.0
aF-1.0
aF-1.0
aF-1.0
aF0.0
aF0.0
aF0.0
aF0.0
aF0.0
aF1.0
aa(lp3612
F-1.0
aF-0.031220040473359467
aF1.0
aF-1.0
aF-1.0
aF-1.0
aF-1.0
aF-1.0
aF0.0
aF0.0
aF0.0
aF0.0
aF0.0
aF1.0
aa(lp3613
F-1.0
aF0.18738119933578945
aF1.0
aF-1.0
aF-1.0
aF-1.0
aF-1.0
aF-1.0
aF0.0
aF0.0
aF0.0
aF0.0
aF0.0
aF1.0
aa(lp3614
F-1.0
aF0.44185163748635681
aF1.0
aF-1.0
aF-1.0
aF-1.0
aF-1.0
aF-1.0
aF0.0
aF0.0
aF0.0
aF0.0
aF0.0
aF1.0
aa(lp3615
F-1.0
aF0.73891904920049623
aF1.0
aF-1.0
aF-1.0
aF-1.0
aF-1.0
aF-1.0
aF0.0
aF0.0
aF0.0
aF0.0
aF0.0
aF1.0
aa(lp3616
F-1.0
aF1.0
aF0.9101760820714373
aF-1.0
aF-1.0
aF-1.0
aF-1.0
aF-1.0
aF0.0
aF0.0
aF0.0
aF0.0
aF0.0
aF1.0
aa(lp3617
F-1.0
aF1.0
aF0.58337490820555415
aF-1.0
aF-1.0
aF-1.0
aF-1.0
aF-1.0
aF0.0
aF0.0
aF0.0
aF0.0
aF0.0
aF1.0
aa(lp3618
F-1.0
aF1.0
aF0.30790589954122605
aF-1.0
aF-1.0
aF-1.0
aF-1.0
aF-1.0
aF0.0
aF0.0
aF0.0
aF0.0
aF0.0
aF1.0
aa(lp3619
F-1.0
aF1.0
aF0.070387665522934073
aF-1.0
aF-1.0
aF-1.0
aF-1.0
aF-1.0
aF0.0
aF0.0
aF0.0
aF0.0
aF0.0
aF1.0
aa(lp3620
F-1.0
aF1.0
aF-0.13480122502186986
aF-1.0
aF-1.0
aF-1.0
aF-1.0
aF-1.0
aF0.0
aF0.0
aF0.0
aF0.0
aF0.0
aF1.0
aa(lp3621
F-1.0
aF1.0
aF-0.31550955355964994
aF-1.0
aF-1.0
aF-1.0
aF-1.0
aF-1.0
aF0.0
aF0.0
aF0.0
aF0.0
aF0.0
aF1.0
aa(lp3622
F-1.0
aF1.0
aF-0.47453649725111757
aF-1.0
aF-1.0
aF-1.0
aF-1.0
aF-1.0
aF0.0
aF0.0
aF0.0
aF0.0
aF0.0
aF1.0
aa(lp3623
F-1.0
aF1.0
aF-0.61688297841376383
aF-1.0
aF-1.0
aF-1.0
aF-1.0
aF-1.0
aF0.0
aF0.0
aF0.0
aF0.0
aF0.0
aF1.0
aa(lp3624
F-1.0
aF1.0
aF-0.74398880474025697
aF-1.0
aF-1.0
aF-1.0
aF-1.0
aF-1.0
aF0.0
aF0.0
aF0.0
aF0.0
aF0.0
aF1.0
aa(lp3625
F-1.0
aF1.0
aF-0.85923322669699842
aF-1.0
aF-1.0
aF-1.0
aF-1.0
aF-1.0
aF0.0
aF0.0
aF0.0
aF0.0
aF0.0
aF1.0
aa(lp3626
F-1.0
aF1.0
aF-0.96335812723234793
aF-1.0
aF-1.0
aF-1.0
aF-1.0
aF-1.0
aF0.0
aF0.0
aF0.0
aF0.0
aF0.0
aF1.0
aa(lp3627
F-0.93757327398926193
aF1.0
aF-1.0
aF-1.0
aF-1.0
aF-1.0
aF-1.0
aF-1.0
aF0.0
aF0.0
aF0.0
aF0.0
aF0.0
aF1.0
aa(lp3628
F-0.82931450041464905
aF1.0
aF-1.0
aF-1.0
aF-1.0
aF-1.0
aF-1.0
aF-1.0
aF0.0
aF0.0
aF0.0
aF0.0
aF0.0
aF1.0
aa(lp3629
F-0.70760725986111017
aF1.0
aF-1.0
aF-1.0
aF-1.0
aF-1.0
aF-1.0
aF-1.0
aF0.0
aF0.0
aF0.0
aF0.0
aF0.0
aF1.0
aa(lp3630
F-0.56975026544153451
aF1.0
aF-1.0
aF-1.0
aF-1.0
aF-1.0
aF-1.0
aF-1.0
aF0.0
aF0.0
aF0.0
aF0.0
aF0.0
aF1.0
aa(lp3631
F-0.41358780111426974
aF1.0
aF-1.0
aF-1.0
aF-1.0
aF-1.0
aF-1.0
aF-1.0
aF0.0
aF0.0
aF0.0
aF0.0
aF0.0
aF1.0
aa(lp3632
F-0.23355678725228557
aF1.0
aF-1.0
aF-1.0
aF-1.0
aF-1.0
aF-1.0
aF-1.0
aF0.0
aF0.0
aF0.0
aF0.0
aF0.0
aF1.0
aa(lp3633
F-0.025381059511969561
aF1.0
aF-1.0
aF-1.0
aF-1.0
aF-1.0
aF-1.0
aF-1.0
aF0.0
aF0.0
aF0.0
aF0.0
aF0.0
aF1.0
aa(lp3634
F0.22028036303265441
aF1.0
aF-1.0
aF-1.0
aF-1.0
aF-1.0
aF-1.0
aF-1.0
aF0.0
aF0.0
aF0.0
aF0.0
aF0.0
aF1.0
aa(lp3635
F0.5123587151836595
aF1.0
aF-1.0
aF-1.0
aF-1.0
aF-1.0
aF-1.0
aF-1.0
aF0.0
aF0.0
aF0.0
aF0.0
aF0.0
aF1.0
aa(lp3636
F0.86837906066971882
aF1.0
aF-1.0
aF-1.0
aF-1.0
aF-1.0
aF-1.0
aF-1.0
aF0.0
aF0.0
aF0.0
aF0.0
aF0.0
aF1.0
aa(lp3637
F1.0
aF0.73251310797358737
aF-1.0
aF-1.0
aF-1.0
aF-1.0
aF-1.0
aF-1.0
aF0.0
aF0.0
aF0.0
aF0.0
aF0.0
aF1.0
aa(lp3638
F1.0
aF0.39269847100387367
aF-1.0
aF-1.0
aF-1.0
aF-1.0
aF-1.0
aF-1.0
aF0.0
aF0.0
aF0.0
aF0.0
aF0.0
aF1.0
aa(lp3639
F1.0
aF0.10705311858647204
aF-1.0
aF-1.0
aF-1.0
aF-1.0
aF-1.0
aF-1.0
aF0.0
aF0.0
aF0.0
aF0.0
aF0.0
aF1.0
aa(lp3640
F1.0
aF-0.1378668301188487
aF-1.0
aF-1.0
aF-1.0
aF-1.0
aF-1.0
aF-1.0
aF0.0
aF0.0
aF0.0
aF0.0
aF0.0
aF1.0
aa(lp3641
F1.0
aF-0.34916131403665096
aF-1.0
aF-1.0
aF-1.0
aF-1.0
aF-1.0
aF-1.0
aF0.0
aF0.0
aF0.0
aF0.0
aF0.0
aF1.0
aa(lp3642
F1.0
aF-0.53428302408580475
aF-1.0
aF-1.0
aF-1.0
aF-1.0
aF-1.0
aF-1.0
aF0.0
aF0.0
aF0.0
aF0.0
aF0.0
aF1.0
aa(lp3643
F1.0
aF-0.69710568540458939
aF-1.0
aF-1.0
aF-1.0
aF-1.0
aF-1.0
aF-1.0
aF0.0
aF0.0
aF0.0
aF0.0
aF0.0
aF1.0
aa(lp3644
F1.0
aF-0.84208420264622685
aF-1.0
aF-1.0
aF-1.0
aF-1.0
aF-1.0
aF-1.0
aF0.0
aF0.0
aF0.0
aF0.0
aF0.0
aF1.0
aa(lp3645
F1.0
aF-0.97194284064623948
aF-1.0
aF-1.0
aF-1.0
aF-1.0
aF-1.0
aF-1.0
aF0.0
aF0.0
aF0.0
aF0.0
aF0.0
aF1.0
aa(lp3646
F1.0
aF-1.0
aF-1.0
aF-1.0
aF-0.90287119265610394
aF-1.0
aF-1.0
aF-1.0
aF0.0
aF0.0
aF0.0
aF0.0
aF0.0
aF1.0
aa(lp3647
F1.0
aF-1.0
aF-1.0
aF-1.0
aF-0.7591204170848932
aF-1.0
aF-1.0
aF-1.0
aF0.0
aF0.0
aF0.0
aF0.0
aF0.0
aF1.0
aa(lp3648
F1.0
aF-1.0
aF-1.0
aF-1.0
aF-0.59168746528325278
aF-1.0
aF-1.0
aF-1.0
aF0.0
aF0.0
aF0.0
aF0.0
aF0.0
aF1.0
aa(lp3649
F1.0
aF-1.0
aF-1.0
aF-1.0
aF-0.39368511976334597
aF-1.0
aF-1.0
aF-1.0
aF0.0
aF0.0
aF0.0
aF0.0
aF0.0
aF1.0
aa(lp3650
F1.0
aF-1.0
aF-1.0
aF-1.0
aF-0.15648910406832506
aF-1.0
aF-1.0
aF-1.0
aF0.0
aF0.0
aF0.0
aF0.0
aF0.0
aF1.0
aa(lp3651
F1.0
aF-1.0
aF-1.0
aF-1.0
aF0.13323066193851574
aF-1.0
aF-1.0
aF-1.0
aF0.0
aF0.0
aF0.0
aF0.0
aF0.0
aF1.0
aa(lp3652
F1.0
aF-1.0
aF-1.0
aF-1.0
aF0.49465019604008709
aF-1.0
aF-1.0
aF-1.0
aF0.0
aF0.0
aF0.0
aF0.0
aF0.0
aF1.0
aa(lp3653
F1.0
aF-1.0
aF-1.0
aF-1.0
aF0.95749431253325712
aF-1.0
aF-1.0
aF-1.0
aF0.0
aF0.0
aF0.0
aF0.0
aF0.0
aF1.0
aa(lp3654
F0.55571243464644948
aF-1.0
aF-1.0
aF-1.0
aF1.0
aF-1.0
aF-1.0
aF-1.0
aF0.0
aF0.0
aF0.0
aF0.0
aF0.0
aF1.0
aa(lp3655
F0.16849862273194205
aF-1.0
aF-1.0
aF-1.0
aF1.0
aF-1.0
aF-1.0
aF-1.0
aF0.0
aF0.0
aF0.0
aF0.0
aF0.0
aF1.0
aa(lp3656
F-0.14595150998227502
aF-1.0
aF-1.0
aF-1.0
aF1.0
aF-1.0
aF-1.0
aF-1.0
aF0.0
aF0.0
aF0.0
aF0.0
aF0.0
aF1.0
aa(lp3657
F-0.40641527808486155
aF-1.0
aF-1.0
aF-1.0
aF1.0
aF-1.0
aF-1.0
aF-1.0
aF0.0
aF0.0
aF0.0
aF0.0
aF0.0
aF1.0
aa(lp3658
F-0.625169607764268
aF-1.0
aF-1.0
aF-1.0
aF1.0
aF-1.0
aF-1.0
aF-1.0
aF0.0
aF0.0
aF0.0
aF0.0
aF0.0
aF1.0
aa(lp3659
F-0.81162838507736934
aF-1.0
aF-1.0
aF-1.0
aF1.0
aF-1.0
aF-1.0
aF-1.0
aF0.0
aF0.0
aF0.0
aF0.0
aF0.0
aF1.0
aa(lp3660
F-0.97189961524358193
aF-1.0
aF-1.0
aF-1.0
aF1.0
aF-1.0
aF-1.0
aF-1.0
aF0.0
aF0.0
aF0.0
aF0.0
aF0.0
aF1.0
aa(lp3661
F-1.0
aF-1.0
aF-1.0
aF-1.0
aF1.0
aF-0.87472599048357069
aF-1.0
aF-1.0
aF0.0
aF0.0
aF0.0
aF0.0
aF0.0
aF1.0
aa(lp3662
F-1.0
aF-1.0
aF-1.0
aF-1.0
aF1.0
aF-0.69589256365959273
aF-1.0
aF-1.0
aF0.0
aF0.0
aF0.0
aF0.0
aF0.0
aF1.0
aa(lp3663
F-1.0
aF-1.0
aF-1.0
aF-1.0
aF1.0
aF-0.48294397445467252
aF-1.0
aF-1.0
aF0.0
aF0.0
aF0.0
aF0.0
aF0.0
aF1.0
aa(lp3664
F-1.0
aF-1.0
aF-1.0
aF-1.0
aF1.0
aF-0.22668212364863927
aF-1.0
aF-1.0
aF0.0
aF0.0
aF0.0
aF0.0
aF0.0
aF1.0
aa(lp3665
F-1.0
aF-1.0
aF-1.0
aF-1.0
aF1.0
aF0.088578431703743465
aF-1.0
aF-1.0
aF0.0
aF0.0
aF0.0
aF0.0
aF0.0
aF1.0
aa(lp3666
F-1.0
aF-1.0
aF-1.0
aF-1.0
aF1.0
aF0.48299051092447698
aF-1.0
aF-1.0
aF0.0
aF0.0
aF0.0
aF0.0
aF0.0
aF1.0
aa(lp3667
F-1.0
aF-1.0
aF-1.0
aF-1.0
aF1.0
aF0.98944074718203301
aF-1.0
aF-1.0
aF0.0
aF0.0
aF0.0
aF0.0
aF0.0
aF1.0
aa(lp3668
F-1.0
aF-1.0
aF-1.0
aF-1.0
aF0.50004401143774824
aF1.0
aF-1.0
aF-1.0
aF0.0
aF0.0
aF0.0
aF0.0
aF0.0
aF1.0
aa(lp3669
F-1.0
aF-1.0
aF-1.0
aF-1.0
aF0.10807152344444182
aF1.0
aF-1.0
aF-1.0
aF0.0
aF0.0
aF0.0
aF0.0
aF0.0
aF1.0
aa(lp3670
F-1.0
aF-1.0
aF-1.0
aF-1.0
aF-0.20358230814398626
aF1.0
aF-1.0
aF-1.0
aF0.0
aF0.0
aF0.0
aF0.0
aF0.0
aF1.0
aa(lp3671
F-1.0
aF-1.0
aF-1.0
aF-1.0
aF-0.45550681015742833
aF1.0
aF-1.0
aF-1.0
aF0.0
aF0.0
aF0.0
aF0.0
aF0.0
aF1.0
aa(lp3672
F-1.0
aF-1.0
aF-1.0
aF-1.0
aF-0.66435541571459478
aF1.0
aF-1.0
aF-1.0
aF0.0
aF0.0
aF0.0
aF0.0
aF0.0
aF1.0
aa(lp3673
F-1.0
aF-1.0
aF-1.0
aF-1.0
aF-0.83898450049774365
aF1.0
aF-1.0
aF-1.0
aF0.0
aF0.0
aF0.0
aF0.0
aF0.0
aF1.0
aa(lp3674
F-1.0
aF-1.0
aF-1.0
aF-1.0
aF-0.98795337952477502
aF1.0
aF-1.0
aF-1.0
aF0.0
aF0.0
aF0.0
aF0.0
aF0.0
aF1.0
aa(lp3675
F-1.0
aF-1.0
aF-1.0
aF-1.0
aF-1.0
aF1.0
aF-0.86938517416141059
aF-1.0
aF0.0
aF0.0
aF0.0
aF0.0
aF0.0
aF1.0
aa(lp3676
F-1.0
aF-1.0
aF-1.0
aF-1.0
aF-1.0
aF1.0
aF-0.70692185846216016
aF-1.0
aF0.0
aF0.0
aF0.0
aF0.0
aF0.0
aF1.0
aa(lp3677
F-1.0
aF-1.0
aF-1.0
aF-1.0
aF-1.0
aF1.0
aF-0.52172134951118387
aF-1.0
aF0.0
aF0.0
aF0.0
aF0.0
aF0.0
aF1.0
aa(lp3678
F-1.0
aF-1.0
aF-1.0
aF-1.0
aF-1.0
aF1.0
aF-0.30710532913013799
aF-1.0
aF0.0
aF0.0
aF0.0
aF0.0
aF0.0
aF1.0
aa(lp3679
F-1.0
aF-1.0
aF-1.0
aF-1.0
aF-1.0
aF1.0
aF-0.05779008314375933
aF-1.0
aF0.0
aF0.0
aF0.0
aF0.0
aF0.0
aF1.0
aa(lp3680
F-1.0
aF-1.0
aF-1.0
aF-1.0
aF-1.0
aF1.0
aF0.23512315333701772
aF-1.0
aF0.0
aF0.0
aF0.0
aF0.0
aF0.0
aF1.0
aa(lp3681
F-1.0
aF-1.0
aF-1.0
aF-1.0
aF-1.0
aF1.0
aF0.58700733817071793
aF-1.0
aF0.0
aF0.0
aF0.0
aF0.0
aF0.0
aF1.0
aa(lp3682
F-1.0
aF-1.0
aF-1.0
aF-1.0
aF-1.0
aF0.98649845311514506
aF1.0
aF-1.0
aF0.0
aF0.0
aF0.0
aF0.0
aF0.0
aF1.0
aa(lp3683
F-1.0
aF-1.0
aF-1.0
aF-1.0
aF-1.0
aF0.57109359666634063
aF1.0
aF-1.0
aF0.0
aF0.0
aF0.0
aF0.0
aF0.0
aF1.0
aa(lp3684
F-1.0
aF-1.0
aF-1.0
aF-1.0
aF-1.0
aF0.24122499205836911
aF1.0
aF-1.0
aF0.0
aF0.0
aF0.0
aF0.0
aF0.0
aF1.0
aa(lp3685
F-1.0
aF-1.0
aF-1.0
aF-1.0
aF-1.0
aF-0.028967257744103136
aF1.0
aF-1.0
aF0.0
aF0.0
aF0.0
aF0.0
aF0.0
aF1.0
aa(lp3686
F-1.0
aF-1.0
aF-1.0
aF-1.0
aF-1.0
aF-0.25262665104977933
aF1.0
aF-1.0
aF0.0
aF0.0
aF0.0
aF0.0
aF0.0
aF1.0
aa(lp3687
F-1.0
aF-1.0
aF-1.0
aF-1.0
aF-1.0
aF-0.44218026708894442
aF1.0
aF-1.0
aF0.0
aF0.0
aF0.0
aF0.0
aF0.0
aF1.0
aa(lp3688
F-1.0
aF-1.0
aF-1.0
aF-1.0
aF-1.0
aF-0.6036710815765971
aF1.0
aF-1.0
aF0.0
aF0.0
aF0.0
aF0.0
aF0.0
aF1.0
aa(lp3689
F-1.0
aF-1.0
aF-1.0
aF-1.0
aF-1.0
aF-0.74391460078350236
aF1.0
aF-1.0
aF0.0
aF0.0
aF0.0
aF0.0
aF0.0
aF1.0
aa(lp3690
F-1.0
aF-1.0
aF-1.0
aF-1.0
aF-1.0
aF-0.86594896365800156
aF1.0
aF-1.0
aF0.0
aF0.0
aF0.0
aF0.0
aF0.0
aF1.0
aa(lp3691
F-1.0
aF-1.0
aF-1.0
aF-1.0
aF-1.0
aF-0.97388683876270499
aF1.0
aF-1.0
aF0.0
aF0.0
aF0.0
aF0.0
aF0.0
aF1.0
aa(lp3692
F-1.0
aF-1.0
aF-1.0
aF-1.0
aF-1.0
aF-1.0
aF1.0
aF-0.92547871966079909
aF0.0
aF0.0
aF0.0
aF0.0
aF0.0
aF1.0
aa(lp3693
F-1.0
aF-1.0
aF-1.0
aF-1.0
aF-1.0
aF-1.0
aF1.0
aF-0.81656022709348763
aF0.0
aF0.0
aF0.0
aF0.0
aF0.0
aF1.0
aa(lp3694
F-1.0
aF-1.0
aF-1.0
aF-1.0
aF-1.0
aF-1.0
aF1.0
aF-0.69833503329442204
aF0.0
aF0.0
aF0.0
aF0.0
aF0.0
aF1.0
aa(lp3695
F-1.0
aF-1.0
aF-1.0
aF-1.0
aF-1.0
aF-1.0
aF1.0
aF-0.56855670673804459
aF0.0
aF0.0
aF0.0
aF0.0
aF0.0
aF1.0
aa(lp3696
F-1.0
aF-1.0
aF-1.0
aF-1.0
aF-1.0
aF-1.0
aF1.0
aF-0.42648457637621662
aF0.0
aF0.0
aF0.0
aF0.0
aF0.0
aF1.0
aa(lp3697
F-1.0
aF-1.0
aF-1.0
aF-1.0
aF-1.0
aF-1.0
aF1.0
aF-0.27020941291980827
aF0.0
aF0.0
aF0.0
aF0.0
aF0.0
aF1.0
aa(lp3698
F-1.0
aF-1.0
aF-1.0
aF-1.0
aF-1.0
aF-1.0
aF1.0
aF-0.096193735124807556
aF0.0
aF0.0
aF0.0
aF0.0
aF0.0
aF1.0
aa(lp3699
F-1.0
aF-1.0
aF-1.0
aF-1.0
aF-1.0
aF-1.0
aF1.0
aF0.097427511939054856
aF0.0
aF0.0
aF0.0
aF0.0
aF0.0
aF1.0
aa(lp3700
F-1.0
aF-1.0
aF-1.0
aF-1.0
aF-1.0
aF-1.0
aF1.0
aF0.31572667742088711
aF0.0
aF0.0
aF0.0
aF0.0
aF0.0
aF1.0
aa(lp3701
F-1.0
aF-1.0
aF-1.0
aF-1.0
aF-1.0
aF-1.0
aF1.0
aF0.56213054457836087
aF0.0
aF0.0
aF0.0
aF0.0
aF0.0
aF1.0
aa(lp3702
F-1.0
aF-1.0
aF-1.0
aF-1.0
aF-1.0
aF-1.0
aF1.0
aF0.84437545132119518
aF0.0
aF0.0
aF0.0
aF0.0
aF0.0
aF1.0
aa(lp3703
F-1.0
aF-1.0
aF-1.0
aF-1.0
aF-1.0
aF-1.0
aF0.84427994159183206
aF1.0
aF0.0
aF0.0
aF0.0
aF0.0
aF0.0
aF1.0
aa(lp3704
F-1.0
aF-1.0
aF-1.0
aF-1.0
aF-1.0
aF-1.0
aF0.56964563684028402
aF1.0
aF0.0
aF0.0
aF0.0
aF0.0
aF0.0
aF1.0
aa(lp3705
F-1.0
aF-1.0
aF-1.0
aF-1.0
aF-1.0
aF-1.0
aF0.33535961837386985
aF1.0
aF0.0
aF0.0
aF0.0
aF0.0
aF0.0
aF1.0
aa(lp3706
F-1.0
aF-1.0
aF-1.0
aF-1.0
aF-1.0
aF-1.0
aF0.13206473409062536
aF1.0
aF0.0
aF0.0
aF0.0
aF0.0
aF0.0
aF1.0
aa(lp3707
F-1.0
aF-1.0
aF-1.0
aF-1.0
aF-1.0
aF-1.0
aF-0.045172842083330389
aF1.0
aF0.0
aF0.0
aF0.0
aF0.0
aF0.0
aF1.0
aa(lp3708
F-1.0
aF-1.0
aF-1.0
aF-1.0
aF-1.0
aF-1.0
aF-0.2018433402426667
aF1.0
aF0.0
aF0.0
aF0.0
aF0.0
aF0.0
aF1.0
aa(lp3709
F-1.0
aF-1.0
aF-1.0
aF-1.0
aF-1.0
aF-1.0
aF-0.34072052345586579
aF1.0
aF0.0
aF0.0
aF0.0
aF0.0
aF0.0
aF1.0
aa(lp3710
F-1.0
aF-1.0
aF-1.0
aF-1.0
aF-1.0
aF-1.0
aF-0.46525048885667375
aF1.0
aF0.0
aF0.0
aF0.0
aF0.0
aF0.0
aF1.0
aa(lp3711
F-1.0
aF-1.0
aF-1.0
aF-1.0
aF-1.0
aF-1.0
aF-0.57709706581889886
aF1.0
aF0.0
aF0.0
aF0.0
aF0.0
aF0.0
aF1.0
aa(lp3712
F-1.0
aF-1.0
aF-1.0
aF-1.0
aF-1.0
aF-1.0
aF-0.67853677022045877
aF1.0
aF0.0
aF0.0
aF0.0
aF0.0
aF0.0
aF1.0
aa(lp3713
F-1.0
aF-1.0
aF-1.0
aF-1.0
aF-1.0
aF-1.0
aF-0.77061933077662981
aF1.0
aF0.0
aF0.0
aF0.0
aF0.0
aF0.0
aF1.0
aa(lp3714
F-1.0
aF-1.0
aF-1.0
aF-1.0
aF-1.0
aF-1.0
aF-0.85462772764168859
aF1.0
aF0.0
aF0.0
aF0.0
aF0.0
aF0.0
aF1.0
aa(lp3715
F-1.0
aF-1.0
aF-1.0
aF-1.0
aF-1.0
aF-1.0
aF-0.93186571541148433
aF1.0
aF0.0
aF0.0
aF0.0
aF0.0
aF0.0
aF1.0
aa(lp3716
F-1.0
aF-1.0
aF-1.0
aF-0.99709418630050162
aF-1.0
aF-1.0
aF-1.0
aF1.0
aF0.0
aF0.0
aF0.0
aF0.0
aF0.0
aF1.0
aa(lp3717
F-1.0
aF-1.0
aF-1.0
aF-0.9262787490190828
aF-1.0
aF-1.0
aF-1.0
aF1.0
aF0.0
aF0.0
aF0.0
aF0.0
aF0.0
aF1.0
aa(lp3718
F-1.0
aF-1.0
aF-1.0
aF-0.85116965748154616
aF-1.0
aF-1.0
aF-1.0
aF1.0
aF0.0
aF0.0
aF0.0
aF0.0
aF0.0
aF1.0
aa(lp3719
F-1.0
aF-1.0
aF-1.0
aF-0.77111378303945666
aF-1.0
aF-1.0
aF-1.0
aF1.0
aF0.0
aF0.0
aF0.0
aF0.0
aF0.0
aF1.0
aa(lp3720
F-1.0
aF-1.0
aF-1.0
aF-0.6858239452107675
aF-1.0
aF-1.0
aF-1.0
aF1.0
aF0.0
aF0.0
aF0.0
aF0.0
aF0.0
aF1.0
aa(lp3721
F-1.0
aF-1.0
aF-1.0
aF-0.5945226184843122
aF-1.0
aF-1.0
aF-1.0
aF1.0
aF0.0
aF0.0
aF0.0
aF0.0
aF0.0
aF1.0
aa(lp3722
F-1.0
aF-1.0
aF-1.0
aF-0.496762170556724
aF-1.0
aF-1.0
aF-1.0
aF1.0
aF0.0
aF0.0
aF0.0
aF0.0
aF0.0
aF1.0
aa(lp3723
F-1.0
aF-1.0
aF-1.0
aF-0.39177892538684422
aF-1.0
aF-1.0
aF-1.0
aF1.0
aF0.0
aF0.0
aF0.0
aF0.0
aF0.0
aF1.0
aa(lp3724
F-1.0
aF-1.0
aF-1.0
aF-0.27850918953332859
aF-1.0
aF-1.0
aF-1.0
aF1.0
aF0.0
aF0.0
aF0.0
aF0.0
aF0.0
aF1.0
aa(lp3725
F-1.0
aF-1.0
aF-1.0
aF-0.15612220807183153
aF-1.0
aF-1.0
aF-1.0
aF1.0
aF0.0
aF0.0
aF0.0
aF0.0
aF0.0
aF1.0
aa(lp3726
F-1.0
aF-1.0
aF-1.0
aF-0.023254070075044098
aF-1.0
aF-1.0
aF-1.0
aF1.0
aF0.0
aF0.0
aF0.0
aF0.0
aF0.0
aF1.0
aa(lp3727
F-1.0
aF-1.0
aF-1.0
aF0.12133459034886407
aF-1.0
aF-1.0
aF-1.0
aF1.0
aF0.0
aF0.0
aF0.0
aF0.0
aF0.0
aF1.0
aa(lp3728
F-1.0
aF-1.0
aF-1.0
aF0.27945559869159897
aF-1.0
aF-1.0
aF-1.0
aF1.0
aF0.0
aF0.0
aF0.0
aF0.0
aF0.0
aF1.0
aa(lp3729
F-1.0
aF-1.0
aF-1.0
aF0.45297287590878055
aF-1.0
aF-1.0
aF-1.0
aF1.0
aF0.0
aF0.0
aF0.0
aF0.0
aF0.0
aF1.0
aa(lp3730
F-1.0
aF-1.0
aF-1.0
aF0.64439758999407792
aF-1.0
aF-1.0
aF-1.0
aF1.0
aF0.0
aF0.0
aF0.0
aF0.0
aF0.0
aF1.0
aa(lp3731
F-1.0
aF-1.0
aF-1.0
aF0.85658018820583459
aF-1.0
aF-1.0
aF-1.0
aF1.0
aF0.0
aF0.0
aF0.0
aF0.0
aF0.0
aF1.0
aa(lp3732
F-1.0
aF-1.0
aF-1.0
aF1.0
aF-1.0
aF-1.0
aF-1.0
aF0.91097646171423063
aF0.0
aF0.0
aF0.0
aF0.0
aF0.0
aF1.0
aa(lp3733
F-1.0
aF-1.0
aF-1.0
aF1.0
aF-1.0
aF-1.0
aF-1.0
aF0.69588050853604355
aF0.0
aF0.0
aF0.0
aF0.0
aF0.0
aF1.0
aa(lp3734
F-1.0
aF-1.0
aF-1.0
aF1.0
aF-1.0
aF-1.0
aF-1.0
aF0.50444018501321408
aF0.0
aF0.0
aF0.0
aF0.0
aF0.0
aF1.0
aa(lp3735
F-1.0
aF-1.0
aF-1.0
aF1.0
aF-1.0
aF-1.0
aF-1.0
aF0.33300593910111242
aF0.0
aF0.0
aF0.0
aF0.0
aF0.0
aF1.0
aa(lp3736
F-1.0
aF-1.0
aF-1.0
aF1.0
aF-1.0
aF-1.0
aF-1.0
aF0.17850349140241684
aF0.0
aF0.0
aF0.0
aF0.0
aF0.0
aF1.0
aa(lp3737
F-1.0
aF-1.0
aF-1.0
aF1.0
aF-1.0
aF-1.0
aF-1.0
aF0.038638411940815853
aF0.0
aF0.0
aF0.0
aF0.0
aF0.0
aF1.0
aa(lp3738
F-1.0
aF-1.0
aF-1.0
aF1.0
aF-1.0
aF-1.0
aF-1.0
aF-0.088700113248960433
aF0.0
aF0.0
aF0.0
aF0.0
aF0.0
aF1.0
aa(lp3739
F-1.0
aF-1.0
aF-1.0
aF1.0
aF-1.0
aF-1.0
aF-1.0
aF-0.20499683773633437
aF0.0
aF0.0
aF0.0
aF0.0
aF0.0
aF1.0
aa(lp3740
F-1.0
aF-1.0
aF-1.0
aF1.0
aF-1.0
aF-1.0
aF-1.0
aF-0.31177369281725575
aF0.0
aF0.0
aF0.0
aF0.0
aF0.0
aF1.0
aa(lp3741
F-1.0
aF-1.0
aF-1.0
aF1.0
aF-1.0
aF-1.0
aF-1.0
aF-0.41000705769396717
aF0.0
aF0.0
aF0.0
aF0.0
aF0.0
aF1.0
aa(lp3742
F-1.0
aF-1.0
aF-1.0
aF1.0
aF-1.0
aF-1.0
aF-1.0
aF-0.50084089465245518
aF0.0
aF0.0
aF0.0
aF0.0
aF0.0
aF1.0
aa(lp3743
F-1.0
aF-1.0
aF-1.0
aF1.0
aF-1.0
aF-1.0
aF-1.0
aF-0.58492080967118176
aF0.0
aF0.0
aF0.0
aF0.0
aF0.0
aF1.0
aa(lp3744
F-1.0
aF-1.0
aF-1.0
aF1.0
aF-1.0
aF-1.0
aF-1.0
aF-0.66314014190569592
aF0.0
aF0.0
aF0.0
aF0.0
aF0.0
aF1.0
aa(lp3745
F-1.0
aF-1.0
aF-1.0
aF1.0
aF-1.0
aF-1.0
aF-1.0
aF-0.7361103743385996
aF0.0
aF0.0
aF0.0
aF0.0
aF0.0
aF1.0
aa(lp3746
F-1.0
aF-1.0
aF-1.0
aF1.0
aF-1.0
aF-1.0
aF-1.0
aF-0.80417005804058495
aF0.0
aF0.0
aF0.0
aF0.0
aF0.0
aF1.0
aa(lp3747
F-1.0
aF-1.0
aF-1.0
aF1.0
aF-1.0
aF-1.0
aF-1.0
aF-0.86797225230287145
aF0.0
aF0.0
aF0.0
aF0.0
aF0.0
aF1.0
aa(lp3748
F-1.0
aF-1.0
aF-1.0
aF1.0
aF-1.0
aF-1.0
aF-1.0
aF-0.9277256320016386
aF0.0
aF0.0
aF0.0
aF0.0
aF0.0
aF1.0
aa(lp3749
F-1.0
aF-1.0
aF-1.0
aF1.0
aF-1.0
aF-1.0
aF-1.0
aF-0.98397982429988884
aF0.0
aF0.0
aF0.0
aF0.0
aF0.0
aF1.0
aa(lp3750
F-1.0
aF-1.0
aF-0.96173771628118987
aF1.0
aF-1.0
aF-1.0
aF-1.0
aF-1.0
aF0.0
aF0.0
aF0.0
aF0.0
aF0.0
aF1.0
aa(lp3751
F-1.0
aF-1.0
aF-0.90493070730004344
aF1.0
aF-1.0
aF-1.0
aF-1.0
aF-1.0
aF0.0
aF0.0
aF0.0
aF0.0
aF0.0
aF1.0
aa(lp3752
F-1.0
aF-1.0
aF-0.8453716322858208
aF1.0
aF-1.0
aF-1.0
aF-1.0
aF-1.0
aF0.0
aF0.0
aF0.0
aF0.0
aF0.0
aF1.0
aa(lp3753
F-1.0
aF-1.0
aF-0.78259285650602872
aF1.0
aF-1.0
aF-1.0
aF-1.0
aF-1.0
aF0.0
aF0.0
aF0.0
aF0.0
aF0.0
aF1.0
aa(lp3754
F-1.0
aF-1.0
aF-0.71663069110494015
aF1.0
aF-1.0
aF-1.0
aF-1.0
aF-1.0
aF0.0
aF0.0
aF0.0
aF0.0
aF0.0
aF1.0
aa(lp3755
F-1.0
aF-1.0
aF-0.64691389967370827
aF1.0
aF-1.0
aF-1.0
aF-1.0
aF-1.0
aF0.0
aF0.0
aF0.0
aF0.0
aF0.0
aF1.0
aa(lp3756
F-1.0
aF-1.0
aF-0.57348809305795645
aF1.0
aF-1.0
aF-1.0
aF-1.0
aF-1.0
aF0.0
aF0.0
aF0.0
aF0.0
aF0.0
aF1.0
aa(lp3757
F-1.0
aF-1.0
aF-0.4956547654186515
aF1.0
aF-1.0
aF-1.0
aF-1.0
aF-1.0
aF0.0
aF0.0
aF0.0
aF0.0
aF0.0
aF1.0
aa(lp3758
F-1.0
aF-1.0
aF-0.41298732995799092
aF1.0
aF-1.0
aF-1.0
aF-1.0
aF-1.0
aF0.0
aF0.0
aF0.0
aF0.0
aF0.0
aF1.0
aa(lp3759
F-1.0
aF-1.0
aF-0.32554836655533048
aF1.0
aF-1.0
aF-1.0
aF-1.0
aF-1.0
aF0.0
aF0.0
aF0.0
aF0.0
aF0.0
aF1.0
aa(lp3760
F-1.0
aF-1.0
aF-0.23236429843367912
aF1.0
aF-1.0
aF-1.0
aF-1.0
aF-1.0
aF0.0
aF0.0
aF0.0
aF0.0
aF0.0
aF1.0
aa(lp3761
F-1.0
aF-1.0
aF-0.13350145765537946
aF1.0
aF-1.0
aF-1.0
aF-1.0
aF-1.0
aF0.0
aF0.0
aF0.0
aF0.0
aF0.0
aF1.0
aa(lp3762
F-1.0
aF-1.0
aF-0.027751954837425541
aF1.0
aF-1.0
aF-1.0
aF-1.0
aF-1.0
aF0.0
aF0.0
aF0.0
aF0.0
aF0.0
aF1.0
aa(lp3763
F-1.0
aF-1.0
aF0.084814446935915555
aF1.0
aF-1.0
aF-1.0
aF-1.0
aF-1.0
aF0.0
aF0.0
aF0.0
aF0.0
aF0.0
aF1.0
aa(lp3764
F-1.0
aF-1.0
aF0.20571615065425197
aF1.0
aF-1.0
aF-1.0
aF-1.0
aF-1.0
aF0.0
aF0.0
aF0.0
aF0.0
aF0.0
aF1.0
aa(lp3765
F-1.0
aF-1.0
aF0.33592179988853577
aF1.0
aF-1.0
aF-1.0
aF-1.0
aF-1.0
aF0.0
aF0.0
aF0.0
aF0.0
aF0.0
aF1.0
aa(lp3766
F-1.0
aF-1.0
aF0.47655088286833358
aF1.0
aF-1.0
aF-1.0
aF-1.0
aF-1.0
aF0.0
aF0.0
aF0.0
aF0.0
aF0.0
aF1.0
aa(lp3767
F-1.0
aF-1.0
aF0.62890675823388542
aF1.0
aF-1.0
aF-1.0
aF-1.0
aF-1.0
aF0.0
aF0.0
aF0.0
aF0.0
aF0.0
aF1.0
aa(lp3768
F-1.0
aF-1.0
aF0.79451846535605619
aF1.0
aF-1.0
aF-1.0
aF-1.0
aF-1.0
aF0.0
aF0.0
aF0.0
aF0.0
aF0.0
aF1.0
aa(lp3769
F-1.0
aF-1.0
aF0.975190377848836
aF1.0
aF-1.0
aF-1.0
aF-1.0
aF-1.0
aF0.0
aF0.0
aF0.0
aF0.0
aF0.0
aF1.0
aa(lp3770
F-1.0
aF-1.0
aF1.0
aF0.84072880536860972
aF-1.0
aF-1.0
aF-1.0
aF-1.0
aF0.0
aF0.0
aF0.0
aF0.0
aF0.0
aF1.0
aa(lp3771
F-1.0
aF-1.0
aF1.0
aF0.67317041666445654
aF-1.0
aF-1.0
aF-1.0
aF-1.0
aF0.0
aF0.0
aF0.0
aF0.0
aF0.0
aF1.0
aa(lp3772
F-1.0
aF-1.0
aF1.0
aF0.52026119813765126
aF-1.0
aF-1.0
aF-1.0
aF-1.0
aF0.0
aF0.0
aF0.0
aF0.0
aF0.0
aF1.0
aa(lp3773
F-1.0
aF-1.0
aF1.0
aF0.38018234054248956
aF-1.0
aF-1.0
aF-1.0
aF-1.0
aF0.0
aF0.0
aF0.0
aF0.0
aF0.0
aF1.0
aa(lp3774
F-1.0
aF-1.0
aF1.0
aF0.25139747478384655
aF-1.0
aF-1.0
aF-1.0
aF-1.0
aF0.0
aF0.0
aF0.0
aF0.0
aF0.0
aF1.0
aa(lp3775
F-1.0
aF-1.0
aF1.0
aF0.13262567015496063
aF-1.0
aF-1.0
aF-1.0
aF-1.0
aF0.0
aF0.0
aF0.0
aF0.0
aF0.0
aF1.0
aa(lp3776
F-1.0
aF-1.0
aF1.0
aF0.022764973534555422
aF-1.0
aF-1.0
aF-1.0
aF-1.0
aF0.0
aF0.0
aF0.0
aF0.0
aF0.0
aF1.0
aa(lp3777
F-1.0
aF-1.0
aF1.0
aF-0.079117702047554639
aF-1.0
aF-1.0
aF-1.0
aF-1.0
aF0.0
aF0.0
aF0.0
aF0.0
aF0.0
aF1.0
aa(lp3778
F-1.0
aF-1.0
aF1.0
aF-0.17383160549282095
aF-1.0
aF-1.0
aF-1.0
aF-1.0
aF0.0
aF0.0
aF0.0
aF0.0
aF0.0
aF1.0
aa(lp3779
F-1.0
aF-1.0
aF1.0
aF-0.26207054484337045
aF-1.0
aF-1.0
aF-1.0
aF-1.0
aF0.0
aF0.0
aF0.0
aF0.0
aF0.0
aF1.0
aa(lp3780
F-1.0
aF-1.0
aF1.0
aF-0.34443621913884637
aF-1.0
aF-1.0
aF-1.0
aF-1.0
aF0.0
aF0.0
aF0.0
aF0.0
aF0.0
aF1.0
aa(lp3781
F-1.0
aF-1.0
aF1.0
aF-0.4214560198385422
aF-1.0
aF-1.0
aF-1.0
aF-1.0
aF0.0
aF0.0
aF0.0
aF0.0
aF0.0
aF1.0
aa(lp3782
F-1.0
aF-1.0
aF1.0
aF-0.49358479263383082
aF-1.0
aF-1.0
aF-1.0
aF-1.0
aF0.0
aF0.0
aF0.0
aF0.0
aF0.0
aF1.0
aa(lp3783
F-1.0
aF-1.0
aF1.0
aF-0.5612224386893454
aF-1.0
aF-1.0
aF-1.0
aF-1.0
aF0.0
aF0.0
aF0.0
aF0.0
aF0.0
aF1.0
aa(lp3784
F-1.0
aF-1.0
aF1.0
aF-0.62471259191117534
aF-1.0
aF-1.0
aF-1.0
aF-1.0
aF0.0
aF0.0
aF0.0
aF0.0
aF0.0
aF1.0
aa(lp3785
F-1.0
aF-1.0
aF1.0
aF-0.68436526869822134
aF-1.0
aF-1.0
aF-1.0
aF-1.0
aF0.0
aF0.0
aF0.0
aF0.0
aF0.0
aF1.0
aa(lp3786
F-1.0
aF-1.0
aF1.0
aF-0.74044370031824869
aF-1.0
aF-1.0
aF-1.0
aF-1.0
aF0.0
aF0.0
aF0.0
aF0.0
aF0.0
aF1.0
aa(lp3787
F-1.0
aF-1.0
aF1.0
aF-0.79317084371340085
aF-1.0
aF-1.0
aF-1.0
aF-1.0
aF0.0
aF0.0
aF0.0
aF0.0
aF0.0
aF1.0
aa(lp3788
F-1.0
aF-1.0
aF1.0
aF-0.84274604788758833
aF-1.0
aF-1.0
aF-1.0
aF-1.0
aF0.0
aF0.0
aF0.0
aF0.0
aF0.0
aF1.0
aa(lp3789
F-1.0
aF-1.0
aF1.0
aF-0.88932951076789157
aF-1.0
aF-1.0
aF-1.0
aF-1.0
aF0.0
aF0.0
aF0.0
aF0.0
aF0.0
aF1.0
aa(lp3790
F-1.0
aF-1.0
aF1.0
aF-0.93305783391842811
aF-1.0
aF-1.0
aF-1.0
aF-1.0
aF0.0
aF0.0
aF0.0
aF0.0
aF0.0
aF1.0
aa(lp3791
F-1.0
aF-1.0
aF1.0
aF-0.97402854230403846
aF-1.0
aF-1.0
aF-1.0
aF-1.0
aF0.0
aF0.0
aF0.0
aF0.0
aF0.0
aF1.0
aa(lp3792
F-1.0
aF-0.98753416253608206
aF1.0
aF-1.0
aF-1.0
aF-1.0
aF-1.0
aF-1.0
aF0.0
aF0.0
aF0.0
aF0.0
aF0.0
aF1.0
aa(lp3793
F-1.0
aF-0.9496452423478986
aF1.0
aF-1.0
aF-1.0
aF-1.0
aF-1.0
aF-1.0
aF0.0
aF0.0
aF0.0
aF0.0
aF0.0
aF1.0
aa(lp3794
F-1.0
aF-0.91197128866266419
aF1.0
aF-1.0
aF-1.0
aF-1.0
aF-1.0
aF-1.0
aF0.0
aF0.0
aF0.0
aF0.0
aF0.0
aF1.0
aa(lp3795
F-1.0
aF-0.87495311203583392
aF1.0
aF-1.0
aF-1.0
aF-1.0
aF-1.0
aF-1.0
aF0.0
aF0.0
aF0.0
aF0.0
aF0.0
aF1.0
aa(lp3796
F-1.0
aF-0.83917743403382328
aF1.0
aF-1.0
aF-1.0
aF-1.0
aF-1.0
aF-1.0
aF0.0
aF0.0
aF0.0
aF0.0
aF0.0
aF1.0
aa(lp3797
F-1.0
aF-0.80543374776259513
aF1.0
aF-1.0
aF-1.0
aF-1.0
aF-1.0
aF-1.0
aF0.0
aF0.0
aF0.0
aF0.0
aF0.0
aF1.0
aa(lp3798
F-1.0
aF-0.77478167040585133
aF1.0
aF-1.0
aF-1.0
aF-1.0
aF-1.0
aF-1.0
aF0.0
aF0.0
aF0.0
aF0.0
aF0.0
aF1.0
aa(lp3799
F-1.0
aF-0.7486481127249397
aF1.0
aF-1.0
aF-1.0
aF-1.0
aF-1.0
aF-1.0
aF0.0
aF0.0
aF0.0
aF0.0
aF0.0
aF1.0
aa(lp3800
F-1.0
aF-0.728952312580885
aF1.0
aF-1.0
aF-1.0
aF-1.0
aF-1.0
aF-1.0
aF0.0
aF0.0
aF0.0
aF0.0
aF0.0
aF1.0
aa(lp3801
F-1.0
aF-0.71833205194175043
aF1.0
aF-1.0
aF-1.0
aF-1.0
aF-1.0
aF-1.0
aF0.0
aF0.0
aF0.0
aF0.0
aF0.0
aF1.0
aa(lp3802
F-1.0
aF-0.72037371726616972
aF1.0
aF-1.0
aF-1.0
aF-1.0
aF-1.0
aF-1.0
aF0.0
aF0.0
aF0.0
aF0.0
aF0.0
aF1.0
aa(lp3803
F-1.0
aF-0.74004974605989116
aF1.0
aF-1.0
aF-1.0
aF-1.0
aF-1.0
aF-1.0
aF0.0
aF0.0
aF0.0
aF0.0
aF0.0
aF1.0
aa(lp3804
F-1.0
aF-0.78423252957966949
aF1.0
aF-1.0
aF-1.0
aF-1.0
aF-1.0
aF-1.0
aF0.0
aF0.0
aF0.0
aF0.0
aF0.0
aF1.0
aa(lp3805
F-1.0
aF-0.86246954360154737
aF1.0
aF-1.0
aF-1.0
aF-1.0
aF-1.0
aF-1.0
aF0.0
aF0.0
aF0.0
aF0.0
aF0.0
aF1.0
aa(lp3806
F-1.0
aF-0.98790253617372514
aF1.0
aF-1.0
aF-1.0
aF-1.0
aF-1.0
aF-1.0
aF0.0
aF0.0
aF0.0
aF0.0
aF0.0
aF1.0
aa(lp3807
F-1.0
aF-1.0
aF1.0
aF-0.78398474678991825
aF-1.0
aF-1.0
aF-1.0
aF-1.0
aF0.0
aF0.0
aF0.0
aF0.0
aF0.0
aF1.0
aa(lp3808
F-1.0
aF-1.0
aF1.0
aF-0.18241447431793945
aF-1.0
aF-1.0
aF-1.0
aF-1.0
aF0.0
aF0.0
aF0.0
aF0.0
aF0.0
aF1.0
aa(lp3809
F-1.0
aF-1.0
aF-0.025042258142555007
aF1.0
aF-1.0
aF-1.0
aF-1.0
aF-1.0
aF0.0
aF0.0
aF0.0
aF0.0
aF0.0
aF1.0
aa(lp3810
F-1.0
aF-1.0
aF-1.0
aF1.0
aF-1.0
aF-1.0
aF-1.0
aF0.17080719347563567
aF0.0
aF0.0
aF0.0
aF0.0
aF0.0
aF1.0
aa(lp3811
F-1.0
aF-1.0
aF-1.0
aF-1.0
aF-1.0
aF-1.0
aF-0.74238724489949348
aF1.0
aF0.0
aF0.0
aF0.0
aF0.0
aF0.0
aF1.0
aa(lp3812
F-1.0
aF-1.0
aF-1.0
aF-1.0
aF-1.0
aF-1.0
aF1.0
aF0.64721007107944906
aF0.0
aF0.0
aF0.0
aF0.0
aF0.0
aF1.0
aa(lp3813
F-1.0
aF-1.0
aF-1.0
aF-1.0
aF-1.0
aF-1.0
aF1.0
aF-0.38993748455631638
aF0.0
aF0.0
aF0.0
aF0.0
aF0.0
aF1.0
aa(lp3814
F-1.0
aF-1.0
aF-1.0
aF-1.0
aF-1.0
aF-1.0
aF1.0
aF-0.73208642242910726
aF0.0
aF0.0
aF0.0
aF0.0
aF0.0
aF1.0
aa(lp3815
F-1.0
aF-1.0
aF-1.0
aF-1.0
aF-1.0
aF-1.0
aF1.0
aF-0.8872354059254961
aF0.0
aF0.0
aF0.0
aF0.0
aF0.0
aF1.0
aa(lp3816
F-1.0
aF-1.0
aF-1.0
aF-1.0
aF-1.0
aF-1.0
aF1.0
aF-0.96628537691575112
aF0.0
aF0.0
aF0.0
aF0.0
aF0.0
aF1.0
aa(lp3817
F-1.0
aF-1.0
aF-1.0
aF-1.0
aF-1.0
aF-0.99310534109183568
aF1.0
aF-1.0
aF0.0
aF0.0
aF0.0
aF0.0
aF0.0
aF1.0
aa(lp3818
F-1.0
aF-1.0
aF-1.0
aF-1.0
aF-1.0
aF-0.97437290874358928
aF1.0
aF-1.0
aF0.0
aF0.0
aF0.0
aF0.0
aF0.0
aF1.0
aa(lp3819
F-1.0
aF-1.0
aF-1.0
aF-1.0
aF-1.0
aF-0.97047777438330041
aF1.0
aF-1.0
aF0.0
aF0.0
aF0.0
aF0.0
aF0.0
aF1.0
aa(lp3820
F-1.0
aF-1.0
aF-1.0
aF-1.0
aF-1.0
aF-0.97723451277450013
aF1.0
aF-1.0
aF0.0
aF0.0
aF0.0
aF0.0
aF0.0
aF1.0
aa(lp3821
F-1.0
aF-1.0
aF-1.0
aF-1.0
aF-1.0
aF-0.99163716664488466
aF1.0
aF-1.0
aF0.0
aF0.0
aF0.0
aF0.0
aF0.0
aF1.0
aa(lp3822
F-1.0
aF-1.0
aF-1.0
aF-1.0
aF-1.0
aF-1.0
aF1.0
aF-0.98833952147466408
aF0.0
aF0.0
aF0.0
aF0.0
aF0.0
aF1.0
aa(lp3823
F-1.0
aF-1.0
aF-1.0
aF-1.0
aF-1.0
aF-1.0
aF1.0
aF-0.96340338889529686
aF0.0
aF0.0
aF0.0
aF0.0
aF0.0
aF1.0
aa(lp3824
F-1.0
aF-1.0
aF-1.0
aF-1.0
aF-1.0
aF-1.0
aF1.0
aF-0.93412133780903417
aF0.0
aF0.0
aF0.0
aF0.0
aF0.0
aF1.0
aa(lp3825
F-1.0
aF-1.0
aF-1.0
aF-1.0
aF-1.0
aF-1.0
aF1.0
aF-0.90090555880410661
aF0.0
aF0.0
aF0.0
aF0.0
aF0.0
aF1.0
aa(lp3826
F-1.0
aF-1.0
aF-1.0
aF-1.0
aF-1.0
aF-1.0
aF1.0
aF-0.86400653320900256
aF0.0
aF0.0
aF0.0
aF0.0
aF0.0
aF1.0
aa(lp3827
F-1.0
aF-1.0
aF-1.0
aF-1.0
aF-1.0
aF-1.0
aF1.0
aF-0.8235643982549784
aF0.0
aF0.0
aF0.0
aF0.0
aF0.0
aF1.0
aa(lp3828
F-1.0
aF-1.0
aF-1.0
aF-1.0
aF-1.0
aF-1.0
aF1.0
aF-0.77963083387430387
aF0.0
aF0.0
aF0.0
aF0.0
aF0.0
aF1.0
aa(lp3829
F-1.0
aF-1.0
aF-1.0
aF-1.0
aF-1.0
aF-1.0
aF1.0
aF-0.73218453931309124
aF0.0
aF0.0
aF0.0
aF0.0
aF0.0
aF1.0
aa(lp3830
F-1.0
aF-1.0
aF-1.0
aF-1.0
aF-1.0
aF-1.0
aF1.0
aF-0.68115967287812562
aF0.0
aF0.0
aF0.0
aF0.0
aF0.0
aF1.0
aa(lp3831
F-1.0
aF-1.0
aF-1.0
aF-1.0
aF-1.0
aF-1.0
aF1.0
aF-0.62642696426841626
aF0.0
aF0.0
aF0.0
aF0.0
aF0.0
aF1.0
aa(lp3832
F-1.0
aF-1.0
aF-1.0
aF-1.0
aF-1.0
aF-1.0
aF1.0
aF-0.56781191337818704
aF0.0
aF0.0
aF0.0
aF0.0
aF0.0
aF1.0
aa(lp3833
F-1.0
aF-1.0
aF-1.0
aF-1.0
aF-1.0
aF-1.0
aF1.0
aF-0.50510431790782095
aF0.0
aF0.0
aF0.0
aF0.0
aF0.0
aF1.0
aa(lp3834
F-1.0
aF-1.0
aF-1.0
aF-1.0
aF-1.0
aF-1.0
aF1.0
aF-0.43803264744597004
aF0.0
aF0.0
aF0.0
aF0.0
aF0.0
aF1.0
aa(lp3835
F-1.0
aF-1.0
aF-1.0
aF-1.0
aF-1.0
aF-1.0
aF1.0
aF-0.36628687301530838
aF0.0
aF0.0
aF0.0
aF0.0
aF0.0
aF1.0
aa(lp3836
F-1.0
aF-1.0
aF-1.0
aF-1.0
aF-1.0
aF-1.0
aF1.0
aF-0.2894978739127656
aF0.0
aF0.0
aF0.0
aF0.0
aF0.0
aF1.0
aa(lp3837
F-1.0
aF-1.0
aF-1.0
aF-1.0
aF-1.0
aF-1.0
aF1.0
aF-0.20723448389969523
aF0.0
aF0.0
aF0.0
aF0.0
aF0.0
aF1.0
aa(lp3838
F-1.0
aF-1.0
aF-1.0
aF-1.0
aF-1.0
aF-1.0
aF1.0
aF-0.11901058332378289
aF0.0
aF0.0
aF0.0
aF0.0
aF0.0
aF1.0
aa(lp3839
F-1.0
aF-1.0
aF-1.0
aF-1.0
aF-1.0
aF-1.0
aF1.0
aF-0.024246831359096666
aF0.0
aF0.0
aF0.0
aF0.0
aF0.0
aF1.0
aa(lp3840
F-1.0
aF-1.0
aF-1.0
aF-1.0
aF-1.0
aF-1.0
aF1.0
aF0.077715366178708445
aF0.0
aF0.0
aF0.0
aF0.0
aF0.0
aF1.0
aa(lp3841
F-1.0
aF-1.0
aF-1.0
aF-1.0
aF-1.0
aF-1.0
aF1.0
aF0.18763421558380577
aF0.0
aF0.0
aF0.0
aF0.0
aF0.0
aF1.0
aa(lp3842
F-1.0
aF-1.0
aF-1.0
aF-1.0
aF-1.0
aF-1.0
aF1.0
aF0.30641105871301821
aF0.0
aF0.0
aF0.0
aF0.0
aF0.0
aF1.0
aa(lp3843
F-1.0
aF-1.0
aF-1.0
aF-1.0
aF-1.0
aF-1.0
aF1.0
aF0.43507417045069396
aF0.0
aF0.0
aF0.0
aF0.0
aF0.0
aF1.0
aa(lp3844
F-1.0
aF-1.0
aF-1.0
aF-1.0
aF-1.0
aF-1.0
aF1.0
aF0.57484595750721357
aF0.0
aF0.0
aF0.0
aF0.0
aF0.0
aF1.0
aa(lp3845
F-1.0
aF-1.0
aF-1.0
aF-1.0
aF-1.0
aF-1.0
aF1.0
aF0.72715919655402828
aF0.0
aF0.0
aF0.0
aF0.0
aF0.0
aF1.0
aa(lp3846
F-1.0
aF-1.0
aF-1.0
aF-1.0
aF-1.0
aF-1.0
aF1.0
aF0.89370778178426225
aF0.0
aF0.0
aF0.0
aF0.0
aF0.0
aF1.0
aa(lp3847
F-1.0
aF-1.0
aF-1.0
aF-1.0
aF-1.0
aF-1.0
aF0.92629548035724074
aF1.0
aF0.0
aF0.0
aF0.0
aF0.0
aF0.0
aF1.0
aa(lp3848
F-1.0
aF-1.0
aF-1.0
aF-1.0
aF-1.0
aF-1.0
aF0.7558915549048939
aF1.0
aF0.0
aF0.0
aF0.0
aF0.0
aF0.0
aF1.0
aa(lp3849
F-1.0
aF-1.0
aF-1.0
aF-1.0
aF-1.0
aF-1.0
aF0.59920752488390527
aF1.0
aF0.0
aF0.0
aF0.0
aF0.0
aF0.0
aF1.0
aa(lp3850
F-1.0
aF-1.0
aF-1.0
aF-1.0
aF-1.0
aF-1.0
aF0.45468938805636028
aF1.0
aF0.0
aF0.0
aF0.0
aF0.0
aF0.0
aF1.0
aa(lp3851
F-1.0
aF-1.0
aF-1.0
aF-1.0
aF-1.0
aF-1.0
aF0.32099863038816268
aF1.0
aF0.0
aF0.0
aF0.0
aF0.0
aF0.0
aF1.0
aa(lp3852
F-1.0
aF-1.0
aF-1.0
aF-1.0
aF-1.0
aF-1.0
aF0.19698795143485159
aF1.0
aF0.0
aF0.0
aF0.0
aF0.0
aF0.0
aF1.0
aa(lp3853
F-1.0
aF-1.0
aF-1.0
aF-1.0
aF-1.0
aF-1.0
aF0.081662893165979522
aF1.0
aF0.0
aF0.0
aF0.0
aF0.0
aF0.0
aF1.0
aa(lp3854
F-1.0
aF-1.0
aF-1.0
aF-1.0
aF-1.0
aF-1.0
aF-0.025842234301718059
aF1.0
aF0.0
aF0.0
aF0.0
aF0.0
aF0.0
aF1.0
aa(lp3855
F-1.0
aF-1.0
aF-1.0
aF-1.0
aF-1.0
aF-1.0
aF-0.12628083405611945
aF1.0
aF0.0
aF0.0
aF0.0
aF0.0
aF0.0
aF1.0
aa(lp3856
F-1.0
aF-1.0
aF-1.0
aF-1.0
aF-1.0
aF-1.0
aF-0.22031453644773047
aF1.0
aF0.0
aF0.0
aF0.0
aF0.0
aF0.0
aF1.0
aa(lp3857
F-1.0
aF-1.0
aF-1.0
aF-1.0
aF-1.0
aF-1.0
aF-0.3085273987943089
aF1.0
aF0.0
aF0.0
aF0.0
aF0.0
aF0.0
aF1.0
aa(lp3858
F-1.0
aF-1.0
aF-1.0
aF-1.0
aF-1.0
aF-1.0
aF-0.3914342737285198
aF1.0
aF0.0
aF0.0
aF0.0
aF0.0
aF0.0
aF1.0
aa(lp3859
F-1.0
aF-1.0
aF-1.0
aF-1.0
aF-1.0
aF-1.0
aF-0.46949079756306134
aF1.0
aF0.0
aF0.0
aF0.0
aF0.0
aF0.0
aF1.0
aa(lp3860
F-1.0
aF-1.0
aF-1.0
aF-1.0
aF-1.0
aF-1.0
aF-0.54310429574328667
aF1.0
aF0.0
aF0.0
aF0.0
aF0.0
aF0.0
aF1.0
aa(lp3861
F-1.0
aF-1.0
aF-1.0
aF-1.0
aF-1.0
aF-1.0
aF-0.61263783375055303
aF1.0
aF0.0
aF0.0
aF0.0
aF0.0
aF0.0
aF1.0
aa(lp3862
F-1.0
aF-1.0
aF-1.0
aF-1.0
aF-1.0
aF-1.0
aF-0.67841398649572149
aF1.0
aF0.0
aF0.0
aF0.0
aF0.0
aF0.0
aF1.0
aa(lp3863
F-1.0
aF-1.0
aF-1.0
aF-1.0
aF-1.0
aF-1.0
aF-0.74072631477790862
aF1.0
aF0.0
aF0.0
aF0.0
aF0.0
aF0.0
aF1.0
aa(lp3864
F-1.0
aF-1.0
aF-1.0
aF-1.0
aF-1.0
aF-1.0
aF-0.79983541684183967
aF1.0
aF0.0
aF0.0
aF0.0
aF0.0
aF0.0
aF1.0
aa(lp3865
F-1.0
aF-1.0
aF-1.0
aF-1.0
aF-1.0
aF-1.0
aF-0.85597960304284837
aF1.0
aF0.0
aF0.0
aF0.0
aF0.0
aF0.0
aF1.0
aa(lp3866
F-1.0
aF-1.0
aF-1.0
aF-1.0
aF-1.0
aF-1.0
aF-0.90937233263369532
aF1.0
aF0.0
aF0.0
aF0.0
aF0.0
aF0.0
aF1.0
aa(lp3867
F-1.0
aF-1.0
aF-1.0
aF-1.0
aF-1.0
aF-1.0
aF-0.96020821932960099
aF1.0
aF0.0
aF0.0
aF0.0
aF0.0
aF0.0
aF1.0
aa(lp3868
F-1.0
aF-1.0
aF-1.0
aF-0.99126102485735479
aF-1.0
aF-1.0
aF-1.0
aF1.0
aF0.0
aF0.0
aF0.0
aF0.0
aF0.0
aF1.0
aa(lp3869
F-1.0
aF-1.0
aF-1.0
aF-0.94191214122175071
aF-1.0
aF-1.0
aF-1.0
aF1.0
aF0.0
aF0.0
aF0.0
aF0.0
aF0.0
aF1.0
aa(lp3870
F-1.0
aF-1.0
aF-1.0
aF-0.89004660617881937
aF-1.0
aF-1.0
aF-1.0
aF1.0
aF0.0
aF0.0
aF0.0
aF0.0
aF0.0
aF1.0
aa(lp3871
F-1.0
aF-1.0
aF-1.0
aF-0.83546899241784667
aF-1.0
aF-1.0
aF-1.0
aF1.0
aF0.0
aF0.0
aF0.0
aF0.0
aF0.0
aF1.0
aa(lp3872
F-1.0
aF-1.0
aF-1.0
aF-0.77796444081266303
aF-1.0
aF-1.0
aF-1.0
aF1.0
aF0.0
aF0.0
aF0.0
aF0.0
aF0.0
aF1.0
aa(lp3873
F-1.0
aF-1.0
aF-1.0
aF-0.71729361119400881
aF-1.0
aF-1.0
aF-1.0
aF1.0
aF0.0
aF0.0
aF0.0
aF0.0
aF0.0
aF1.0
aa(lp3874
F-1.0
aF-1.0
aF-1.0
aF-0.65319018520549355
aF-1.0
aF-1.0
aF-1.0
aF1.0
aF0.0
aF0.0
aF0.0
aF0.0
aF0.0
aF1.0
aa(lp3875
F-1.0
aF-1.0
aF-1.0
aF-0.58535890327668683
aF-1.0
aF-1.0
aF-1.0
aF1.0
aF0.0
aF0.0
aF0.0
aF0.0
aF0.0
aF1.0
aa(lp3876
F-1.0
aF-1.0
aF-1.0
aF-0.5134668506694936
aF-1.0
aF-1.0
aF-1.0
aF1.0
aF0.0
aF0.0
aF0.0
aF0.0
aF0.0
aF1.0
aa(lp3877
F-1.0
aF-1.0
aF-1.0
aF-0.43714225101909454
aF-1.0
aF-1.0
aF-1.0
aF1.0
aF0.0
aF0.0
aF0.0
aF0.0
aF0.0
aF1.0
aa(lp3878
F-1.0
aF-1.0
aF-1.0
aF-0.35596495959632424
aF-1.0
aF-1.0
aF-1.0
aF1.0
aF0.0
aF0.0
aF0.0
aF0.0
aF0.0
aF1.0
aa(lp3879
F-1.0
aF-1.0
aF-1.0
aF-0.26946086059621266
aF-1.0
aF-1.0
aF-1.0
aF1.0
aF0.0
aF0.0
aF0.0
aF0.0
aF0.0
aF1.0
aa(lp3880
F-1.0
aF-1.0
aF-1.0
aF-0.17709182414963798
aF-1.0
aF-1.0
aF-1.0
aF1.0
aF0.0
aF0.0
aF0.0
aF0.0
aF0.0
aF1.0
aa(lp3881
F-1.0
aF-1.0
aF-1.0
aF-0.078244408166182056
aF-1.0
aF-1.0
aF-1.0
aF1.0
aF0.0
aF0.0
aF0.0
aF0.0
aF0.0
aF1.0
aa(lp3882
F-1.0
aF-1.0
aF-1.0
aF0.027783592813172886
aF-1.0
aF-1.0
aF-1.0
aF1.0
aF0.0
aF0.0
aF0.0
aF0.0
aF0.0
aF1.0
aa(lp3883
F-1.0
aF-1.0
aF-1.0
aF0.14179910415168639
aF-1.0
aF-1.0
aF-1.0
aF1.0
aF0.0
aF0.0
aF0.0
aF0.0
aF0.0
aF1.0
aa(lp3884
F-1.0
aF-1.0
aF-1.0
aF0.26473519331729012
aF-1.0
aF-1.0
aF-1.0
aF1.0
aF0.0
aF0.0
aF0.0
aF0.0
aF0.0
aF1.0
aa(lp3885
F-1.0
aF-1.0
aF-1.0
aF0.39767576954520867
aF-1.0
aF-1.0
aF-1.0
aF1.0
aF0.0
aF0.0
aF0.0
aF0.0
aF0.0
aF1.0
aa(lp3886
F-1.0
aF-1.0
aF-1.0
aF0.54188854091132188
aF-1.0
aF-1.0
aF-1.0
aF1.0
aF0.0
aF0.0
aF0.0
aF0.0
aF0.0
aF1.0
aa(lp3887
F-1.0
aF-1.0
aF-1.0
aF0.69886387546953332
aF-1.0
aF-1.0
aF-1.0
aF1.0
aF0.0
aF0.0
aF0.0
aF0.0
aF0.0
aF1.0
aa(lp3888
F-1.0
aF-1.0
aF-1.0
aF0.8703672928617574
aF-1.0
aF-1.0
aF-1.0
aF1.0
aF0.0
aF0.0
aF0.0
aF0.0
aF0.0
aF1.0
aa(lp3889
F-1.0
aF-1.0
aF-1.0
aF1.0
aF-1.0
aF-1.0
aF-1.0
aF0.94315731182993545
aF0.0
aF0.0
aF0.0
aF0.0
aF0.0
aF1.0
aa(lp3890
F-1.0
aF-1.0
aF-1.0
aF1.0
aF-1.0
aF-1.0
aF-1.0
aF0.76537057786787077
aF0.0
aF0.0
aF0.0
aF0.0
aF0.0
aF1.0
aa(lp3891
F-1.0
aF-1.0
aF-1.0
aF1.0
aF-1.0
aF-1.0
aF-1.0
aF0.60297015518369368
aF0.0
aF0.0
aF0.0
aF0.0
aF0.0
aF1.0
aa(lp3892
F-1.0
aF-1.0
aF-1.0
aF1.0
aF-1.0
aF-1.0
aF-1.0
aF0.45404770359420055
aF0.0
aF0.0
aF0.0
aF0.0
aF0.0
aF1.0
aa(lp3893
F-1.0
aF-1.0
aF-1.0
aF1.0
aF-1.0
aF-1.0
aF-1.0
aF0.31699789969888448
aF0.0
aF0.0
aF0.0
aF0.0
aF0.0
aF1.0
aa(lp3894
F-1.0
aF-1.0
aF-1.0
aF1.0
aF-1.0
aF-1.0
aF-1.0
aF0.19046144839670398
aF0.0
aF0.0
aF0.0
aF0.0
aF0.0
aF1.0
aa(lp3895
F-1.0
aF-1.0
aF-1.0
aF1.0
aF-1.0
aF-1.0
aF-1.0
aF0.073277572696014204
aF0.0
aF0.0
aF0.0
aF0.0
aF0.0
aF1.0
aa(lp3896
F-1.0
aF-1.0
aF-1.0
aF1.0
aF-1.0
aF-1.0
aF-1.0
aF-0.035548070926754605
aF0.0
aF0.0
aF0.0
aF0.0
aF0.0
aF1.0
aa(lp3897
F-1.0
aF-1.0
aF-1.0
aF1.0
aF-1.0
aF-1.0
aF-1.0
aF-0.13687400885790169
aF0.0
aF0.0
aF0.0
aF0.0
aF0.0
aF1.0
aa(lp3898
F-1.0
aF-1.0
aF-1.0
aF1.0
aF-1.0
aF-1.0
aF-1.0
aF-0.23144513336154571
aF0.0
aF0.0
aF0.0
aF0.0
aF0.0
aF1.0
aa(lp3899
F-1.0
aF-1.0
aF-1.0
aF1.0
aF-1.0
aF-1.0
aF-1.0
aF-0.31991067731731015
aF0.0
aF0.0
aF0.0
aF0.0
aF0.0
aF1.0
aa(lp3900
F-1.0
aF-1.0
aF-1.0
aF1.0
aF-1.0
aF-1.0
aF-1.0
aF-0.40283894749365057
aF0.0
aF0.0
aF0.0
aF0.0
aF0.0
aF1.0
aa(lp3901
F-1.0
aF-1.0
aF-1.0
aF1.0
aF-1.0
aF-1.0
aF-1.0
aF-0.48072922460405931
aF0.0
aF0.0
aF0.0
aF0.0
aF0.0
aF1.0
aa(lp3902
F-1.0
aF-1.0
aF-1.0
aF1.0
aF-1.0
aF-1.0
aF-1.0
aF-0.55402296990972988
aF0.0
aF0.0
aF0.0
aF0.0
aF0.0
aF1.0
aa(lp3903
F-1.0
aF-1.0
aF-1.0
aF1.0
aF-1.0
aF-1.0
aF-1.0
aF-0.6231115378413592
aF0.0
aF0.0
aF0.0
aF0.0
aF0.0
aF1.0
aa(lp3904
F-1.0
aF-1.0
aF-1.0
aF1.0
aF-1.0
aF-1.0
aF-1.0
aF-0.68834158445629023
aF0.0
aF0.0
aF0.0
aF0.0
aF0.0
aF1.0
aa(lp3905
F-1.0
aF-1.0
aF-1.0
aF1.0
aF-1.0
aF-1.0
aF-1.0
aF-0.75002419320732483
aF0.0
aF0.0
aF0.0
aF0.0
aF0.0
aF1.0
aa(lp3906
F-1.0
aF-1.0
aF-1.0
aF1.0
aF-1.0
aF-1.0
aF-1.0
aF-0.80843629880519075
aF0.0
aF0.0
aF0.0
aF0.0
aF0.0
aF1.0
aa(lp3907
F-1.0
aF-1.0
aF-1.0
aF1.0
aF-1.0
aF-1.0
aF-1.0
aF-0.86382660697433544
aF0.0
aF0.0
aF0.0
aF0.0
aF0.0
aF1.0
aa(lp3908
F-1.0
aF-1.0
aF-1.0
aF1.0
aF-1.0
aF-1.0
aF-1.0
aF-0.91642014122798143
aF0.0
aF0.0
aF0.0
aF0.0
aF0.0
aF1.0
aa(lp3909
F-1.0
aF-1.0
aF-1.0
aF1.0
aF-1.0
aF-1.0
aF-1.0
aF-0.96641896822932671
aF0.0
aF0.0
aF0.0
aF0.0
aF0.0
aF1.0
aa(lp3910
F-1.0
aF-1.0
aF-0.98579541192101228
aF1.0
aF-1.0
aF-1.0
aF-1.0
aF-1.0
aF0.0
aF0.0
aF0.0
aF0.0
aF0.0
aF1.0
aa(lp3911
F-1.0
aF-1.0
aF-0.93690945247855717
aF1.0
aF-1.0
aF-1.0
aF-1.0
aF-1.0
aF0.0
aF0.0
aF0.0
aF0.0
aF0.0
aF1.0
aasS'rotation'
p3912
(lp3913
g397
(F0.0
F0.0
F0.0
tp3914
Rp3915
((dp3916
F0.0
F0.0
F0.0
tp3917
bag397
(F0.0
F0.0
F0.0
tp3918
Rp3919
((dp3920
F0.0
F0.0
F0.0
tp3921
bag397
(F0.0
F0.0
F0.0
tp3922
Rp3923
((dp3924
F0.0
F0.0
F0.0
tp3925
bag397
(F0.0
F0.0
F0.0
tp3926
Rp3927
((dp3928
F0.0
F0.0
F0.0
tp3929
bag397
(F0.0
F0.0
F0.0
tp3930
Rp3931
((dp3932
F0.0
F0.0
F0.0
tp3933
bag397
(F0.0
F0.0
F0.0
tp3934
Rp3935
((dp3936
F0.0
F0.0
F0.0
tp3937
bag397
(F0.0
F0.0
F0.0
tp3938
Rp3939
((dp3940
F0.0
F0.0
F0.0
tp3941
bag397
(F0.0
F0.0
F0.0
tp3942
Rp3943
((dp3944
F0.0
F0.0
F0.0
tp3945
bag397
(F0.0
F0.0
F0.0
tp3946
Rp3947
((dp3948
F0.0
F0.0
F0.0
tp3949
bag397
(F0.0
F0.0
F0.0
tp3950
Rp3951
((dp3952
F0.0
F0.0
F0.0
tp3953
bag397
(F0.0
F0.0
F0.0
tp3954
Rp3955
((dp3956
F0.0
F0.0
F0.0
tp3957
bag397
(F0.0
F0.0
F0.0
tp3958
Rp3959
((dp3960
F0.0
F0.0
F0.0
tp3961
bag397
(F0.0
F0.0
F0.0
tp3962
Rp3963
((dp3964
F0.0
F0.0
F0.0
tp3965
bag397
(F0.0
F0.0
F0.0
tp3966
Rp3967
((dp3968
F0.0
F0.0
F0.0
tp3969
bag397
(F0.0
F0.0
F0.0
tp3970
Rp3971
((dp3972
F0.0
F0.0
F0.0
tp3973
bag397
(F0.0
F0.0
F0.0
tp3974
Rp3975
((dp3976
F0.0
F0.0
F0.0
tp3977
bag397
(F0.0
F0.0
F0.0
tp3978
Rp3979
((dp3980
F0.0
F0.0
F0.0
tp3981
bag397
(F0.0
F0.0
F0.0
tp3982
Rp3983
((dp3984
F0.0
F0.0
F0.0
tp3985
bag397
(F0.0
F0.0
F0.0
tp3986
Rp3987
((dp3988
F0.0
F0.0
F0.0
tp3989
bag397
(F0.0
F0.0
F0.0
tp3990
Rp3991
((dp3992
F0.0
F0.0
F0.0
tp3993
bag397
(F0.0
F0.0
F0.0
tp3994
Rp3995
((dp3996
F0.0
F0.0
F0.0
tp3997
bag397
(F0.0
F0.0
F0.0
tp3998
Rp3999
((dp4000
F0.0
F0.0
F0.0
tp4001
bag397
(F0.0
F0.0
F0.0
tp4002
Rp4003
((dp4004
F0.0
F0.0
F0.0
tp4005
bag397
(F0.0
F0.0
F0.0
tp4006
Rp4007
((dp4008
F0.0
F0.0
F0.0
tp4009
bag397
(F0.0
F0.0
F0.0
tp4010
Rp4011
((dp4012
F0.0
F0.0
F0.0
tp4013
bag397
(F0.0
F0.0
F0.0
tp4014
Rp4015
((dp4016
F0.0
F0.0
F0.0
tp4017
bag397
(F0.0
F0.0
F0.0
tp4018
Rp4019
((dp4020
F0.0
F0.0
F0.0
tp4021
bag397
(F0.0
F0.0
F0.0
tp4022
Rp4023
((dp4024
F0.0
F0.0
F0.0
tp4025
bag397
(F0.0
F0.0
F0.0
tp4026
Rp4027
((dp4028
F0.0
F0.0
F0.0
tp4029
bag397
(F0.0
F0.0
F0.0
tp4030
Rp4031
((dp4032
F0.0
F0.0
F0.0
tp4033
bag397
(F0.0
F0.0
F0.0
tp4034
Rp4035
((dp4036
F0.0
F0.0
F0.0
tp4037
bag397
(F0.0
F0.0
F0.0
tp4038
Rp4039
((dp4040
F0.0
F0.0
F0.0
tp4041
bag397
(F0.0
F0.0
F0.0
tp4042
Rp4043
((dp4044
F0.0
F0.0
F0.0
tp4045
bag397
(F0.0
F0.0
F0.0
tp4046
Rp4047
((dp4048
F0.0
F0.0
F0.0
tp4049
bag397
(F0.0
F0.0
F0.0
tp4050
Rp4051
((dp4052
F0.0
F0.0
F0.0
tp4053
bag397
(F0.0
F0.0
F0.0
tp4054
Rp4055
((dp4056
F0.0
F0.0
F0.0
tp4057
bag397
(F0.0
F0.0
F0.0
tp4058
Rp4059
((dp4060
F0.0
F0.0
F0.0
tp4061
bag397
(F0.0
F0.0
F0.0
tp4062
Rp4063
((dp4064
F0.0
F0.0
F0.0
tp4065
bag397
(F0.0
F0.0
F0.0
tp4066
Rp4067
((dp4068
F0.0
F0.0
F0.0
tp4069
bag397
(F0.0
F0.0
F0.0
tp4070
Rp4071
((dp4072
F0.0
F0.0
F0.0
tp4073
bag397
(F0.0
F0.0
F0.0
tp4074
Rp4075
((dp4076
F0.0
F0.0
F0.0
tp4077
bag397
(F0.0
F0.0
F0.0
tp4078
Rp4079
((dp4080
F0.0
F0.0
F0.0
tp4081
bag397
(F0.0
F0.0
F0.0
tp4082
Rp4083
((dp4084
F0.0
F0.0
F0.0
tp4085
bag397
(F0.0
F0.0
F0.0
tp4086
Rp4087
((dp4088
F0.0
F0.0
F0.0
tp4089
bag397
(F0.0
F0.0
F0.0
tp4090
Rp4091
((dp4092
F0.0
F0.0
F0.0
tp4093
bag397
(F0.0
F0.0
F0.0
tp4094
Rp4095
((dp4096
F0.0
F0.0
F0.0
tp4097
bag397
(F0.0
F0.0
F0.0
tp4098
Rp4099
((dp4100
F0.0
F0.0
F0.0
tp4101
bag397
(F0.0
F0.0
F0.0
tp4102
Rp4103
((dp4104
F0.0
F0.0
F0.0
tp4105
bag397
(F0.0
F0.0
F0.0
tp4106
Rp4107
((dp4108
F0.0
F0.0
F0.0
tp4109
bag397
(F0.0
F0.0
F0.0
tp4110
Rp4111
((dp4112
F0.0
F0.0
F0.0
tp4113
bag397
(F0.0
F0.0
F0.0
tp4114
Rp4115
((dp4116
F0.0
F0.0
F0.0
tp4117
bag397
(F0.0
F0.0
F0.0
tp4118
Rp4119
((dp4120
F0.0
F0.0
F0.0
tp4121
bag397
(F0.0
F0.0
F0.0
tp4122
Rp4123
((dp4124
F0.0
F0.0
F0.0
tp4125
bag397
(F0.0
F0.0
F0.0
tp4126
Rp4127
((dp4128
F0.0
F0.0
F0.0
tp4129
bag397
(F0.0
F0.0
F0.0
tp4130
Rp4131
((dp4132
F0.0
F0.0
F0.0
tp4133
bag397
(F0.0
F0.0
F0.0
tp4134
Rp4135
((dp4136
F0.0
F0.0
F0.0
tp4137
bag397
(F0.0
F0.0
F0.0
tp4138
Rp4139
((dp4140
F0.0
F0.0
F0.0
tp4141
bag397
(F0.0
F0.0
F0.0
tp4142
Rp4143
((dp4144
F0.0
F0.0
F0.0
tp4145
bag397
(F0.0
F0.0
F0.0
tp4146
Rp4147
((dp4148
F0.0
F0.0
F0.0
tp4149
bag397
(F0.0
F0.0
F0.0
tp4150
Rp4151
((dp4152
F0.0
F0.0
F0.0
tp4153
bag397
(F0.0
F0.0
F0.0
tp4154
Rp4155
((dp4156
F0.0
F0.0
F0.0
tp4157
bag397
(F0.0
F0.0
F0.0
tp4158
Rp4159
((dp4160
F0.0
F0.0
F0.0
tp4161
bag397
(F0.0
F0.0
F0.0
tp4162
Rp4163
((dp4164
F0.0
F0.0
F0.0
tp4165
bag397
(F0.0
F0.0
F0.0
tp4166
Rp4167
((dp4168
F0.0
F0.0
F0.0
tp4169
bag397
(F0.0
F0.0
F0.0
tp4170
Rp4171
((dp4172
F0.0
F0.0
F0.0
tp4173
bag397
(F0.0
F0.0
F0.0
tp4174
Rp4175
((dp4176
F0.0
F0.0
F0.0
tp4177
bag397
(F0.0
F0.0
F0.0
tp4178
Rp4179
((dp4180
F0.0
F0.0
F0.0
tp4181
bag397
(F0.0
F0.0
F0.0
tp4182
Rp4183
((dp4184
F0.0
F0.0
F0.0
tp4185
bag397
(F0.0
F0.0
F0.0
tp4186
Rp4187
((dp4188
F0.0
F0.0
F0.0
tp4189
bag397
(F0.0
F0.0
F0.0
tp4190
Rp4191
((dp4192
F0.0
F0.0
F0.0
tp4193
bag397
(F0.0
F0.0
F0.0
tp4194
Rp4195
((dp4196
F0.0
F0.0
F0.0
tp4197
bag397
(F0.0
F0.0
F0.0
tp4198
Rp4199
((dp4200
F0.0
F0.0
F0.0
tp4201
bag397
(F0.0
F0.0
F0.0
tp4202
Rp4203
((dp4204
F0.0
F0.0
F0.0
tp4205
bag397
(F0.0
F0.0
F0.0
tp4206
Rp4207
((dp4208
F0.0
F0.0
F0.0
tp4209
bag397
(F0.0
F0.0
F0.0
tp4210
Rp4211
((dp4212
F0.0
F0.0
F0.0
tp4213
bag397
(F0.0
F0.0
F0.0
tp4214
Rp4215
((dp4216
F0.0
F0.0
F0.0
tp4217
bag397
(F0.0
F0.0
F0.0
tp4218
Rp4219
((dp4220
F0.0
F0.0
F0.0
tp4221
bag397
(F0.0
F0.0
F0.0
tp4222
Rp4223
((dp4224
F0.0
F0.0
F0.0
tp4225
bag397
(F0.0
F0.0
F0.0
tp4226
Rp4227
((dp4228
F0.0
F0.0
F0.0
tp4229
bag397
(F0.0
F0.0
F0.0
tp4230
Rp4231
((dp4232
F0.0
F0.0
F0.0
tp4233
bag397
(F0.0
F0.0
F0.0
tp4234
Rp4235
((dp4236
F0.0
F0.0
F0.0
tp4237
bag397
(F0.0
F0.0
F0.0
tp4238
Rp4239
((dp4240
F0.0
F0.0
F0.0
tp4241
bag397
(F0.0
F0.0
F0.0
tp4242
Rp4243
((dp4244
F0.0
F0.0
F0.0
tp4245
bag397
(F0.0
F0.0
F0.0
tp4246
Rp4247
((dp4248
F0.0
F0.0
F0.0
tp4249
bag397
(F0.0
F0.0
F0.0
tp4250
Rp4251
((dp4252
F0.0
F0.0
F0.0
tp4253
bag397
(F0.0
F0.0
F0.0
tp4254
Rp4255
((dp4256
F0.0
F0.0
F0.0
tp4257
bag397
(F0.0
F0.0
F0.0
tp4258
Rp4259
((dp4260
F0.0
F0.0
F0.0
tp4261
bag397
(F0.0
F0.0
F0.0
tp4262
Rp4263
((dp4264
F0.0
F0.0
F0.0
tp4265
bag397
(F0.0
F0.0
F0.0
tp4266
Rp4267
((dp4268
F0.0
F0.0
F0.0
tp4269
bag397
(F0.0
F0.0
F0.0
tp4270
Rp4271
((dp4272
F0.0
F0.0
F0.0
tp4273
bag397
(F0.0
F0.0
F0.0
tp4274
Rp4275
((dp4276
F0.0
F0.0
F0.0
tp4277
bag397
(F0.0
F0.0
F0.0
tp4278
Rp4279
((dp4280
F0.0
F0.0
F0.0
tp4281
bag397
(F0.0
F0.0
F0.0
tp4282
Rp4283
((dp4284
F0.0
F0.0
F0.0
tp4285
bag397
(F0.0
F0.0
F0.0
tp4286
Rp4287
((dp4288
F0.0
F0.0
F0.0
tp4289
bag397
(F0.0
F0.0
F0.0
tp4290
Rp4291
((dp4292
F0.0
F0.0
F0.0
tp4293
bag397
(F0.0
F0.0
F0.0
tp4294
Rp4295
((dp4296
F0.0
F0.0
F0.0
tp4297
bag397
(F0.0
F0.0
F0.0
tp4298
Rp4299
((dp4300
F0.0
F0.0
F0.0
tp4301
bag397
(F0.0
F0.0
F0.0
tp4302
Rp4303
((dp4304
F0.0
F0.0
F0.0
tp4305
bag397
(F0.0
F0.0
F0.0
tp4306
Rp4307
((dp4308
F0.0
F0.0
F0.0
tp4309
bag397
(F0.0
F0.0
F0.0
tp4310
Rp4311
((dp4312
F0.0
F0.0
F0.0
tp4313
bag397
(F0.0
F0.0
F0.0
tp4314
Rp4315
((dp4316
F0.0
F0.0
F0.0
tp4317
bag397
(F0.0
F0.0
F0.0
tp4318
Rp4319
((dp4320
F0.0
F0.0
F0.0
tp4321
bag397
(F0.0
F0.0
F0.0
tp4322
Rp4323
((dp4324
F0.0
F0.0
F0.0
tp4325
bag397
(F0.0
F0.0
F0.0
tp4326
Rp4327
((dp4328
F0.0
F0.0
F0.0
tp4329
bag397
(F0.0
F0.0
F0.0
tp4330
Rp4331
((dp4332
F0.0
F0.0
F0.0
tp4333
bag397
(F0.0
F0.0
F0.0
tp4334
Rp4335
((dp4336
F0.0
F0.0
F0.0
tp4337
bag397
(F0.0
F0.0
F0.0
tp4338
Rp4339
((dp4340
F0.0
F0.0
F0.0
tp4341
bag397
(F0.0
F0.0
F0.0
tp4342
Rp4343
((dp4344
F0.0
F0.0
F0.0
tp4345
bag397
(F0.0
F0.0
F0.0
tp4346
Rp4347
((dp4348
F0.0
F0.0
F0.0
tp4349
bag397
(F0.0
F0.0
F0.0
tp4350
Rp4351
((dp4352
F0.0
F0.0
F0.0
tp4353
bag397
(F0.0
F0.0
F0.0
tp4354
Rp4355
((dp4356
F0.0
F0.0
F0.0
tp4357
bag397
(F0.0
F0.0
F0.0
tp4358
Rp4359
((dp4360
F0.0
F0.0
F0.0
tp4361
bag397
(F0.0
F0.0
F0.0
tp4362
Rp4363
((dp4364
F0.0
F0.0
F0.0
tp4365
bag397
(F0.0
F0.0
F0.0
tp4366
Rp4367
((dp4368
F0.0
F0.0
F0.0
tp4369
bag397
(F0.0
F0.0
F0.0
tp4370
Rp4371
((dp4372
F0.0
F0.0
F0.0
tp4373
bag397
(F0.0
F0.0
F0.0
tp4374
Rp4375
((dp4376
F0.0
F0.0
F0.0
tp4377
bag397
(F0.0
F0.0
F0.0
tp4378
Rp4379
((dp4380
F0.0
F0.0
F0.0
tp4381
bag397
(F0.0
F0.0
F0.0
tp4382
Rp4383
((dp4384
F0.0
F0.0
F0.0
tp4385
bag397
(F0.0
F0.0
F0.0
tp4386
Rp4387
((dp4388
F0.0
F0.0
F0.0
tp4389
bag397
(F0.0
F0.0
F0.0
tp4390
Rp4391
((dp4392
F0.0
F0.0
F0.0
tp4393
bag397
(F0.0
F0.0
F0.0
tp4394
Rp4395
((dp4396
F0.0
F0.0
F0.0
tp4397
bag397
(F0.0
F0.0
F0.0
tp4398
Rp4399
((dp4400
F0.0
F0.0
F0.0
tp4401
bag397
(F0.0
F0.0
F0.0
tp4402
Rp4403
((dp4404
F0.0
F0.0
F0.0
tp4405
bag397
(F0.0
F0.0
F0.0
tp4406
Rp4407
((dp4408
F0.0
F0.0
F0.0
tp4409
bag397
(F0.0
F0.0
F0.0
tp4410
Rp4411
((dp4412
F0.0
F0.0
F0.0
tp4413
bag397
(F0.0
F0.0
F0.0
tp4414
Rp4415
((dp4416
F0.0
F0.0
F0.0
tp4417
bag397
(F0.0
F0.0
F0.0
tp4418
Rp4419
((dp4420
F0.0
F0.0
F0.0
tp4421
bag397
(F0.0
F0.0
F0.0
tp4422
Rp4423
((dp4424
F0.0
F0.0
F0.0
tp4425
bag397
(F0.0
F0.0
F0.0
tp4426
Rp4427
((dp4428
F0.0
F0.0
F0.0
tp4429
bag397
(F0.0
F0.0
F0.0
tp4430
Rp4431
((dp4432
F0.0
F0.0
F0.0
tp4433
bag397
(F0.0
F0.0
F0.0
tp4434
Rp4435
((dp4436
F0.0
F0.0
F0.0
tp4437
bag397
(F0.0
F0.0
F0.0
tp4438
Rp4439
((dp4440
F0.0
F0.0
F0.0
tp4441
bag397
(F0.0
F0.0
F0.0
tp4442
Rp4443
((dp4444
F0.0
F0.0
F0.0
tp4445
bag397
(F0.0
F0.0
F0.0
tp4446
Rp4447
((dp4448
F0.0
F0.0
F0.0
tp4449
bag397
(F0.0
F0.0
F0.0
tp4450
Rp4451
((dp4452
F0.0
F0.0
F0.0
tp4453
bag397
(F0.0
F0.0
F0.0
tp4454
Rp4455
((dp4456
F0.0
F0.0
F0.0
tp4457
bag397
(F0.0
F0.0
F0.0
tp4458
Rp4459
((dp4460
F0.0
F0.0
F0.0
tp4461
bag397
(F0.0
F0.0
F0.0
tp4462
Rp4463
((dp4464
F0.0
F0.0
F0.0
tp4465
bag397
(F0.0
F0.0
F0.0
tp4466
Rp4467
((dp4468
F0.0
F0.0
F0.0
tp4469
bag397
(F0.0
F0.0
F0.0
tp4470
Rp4471
((dp4472
F0.0
F0.0
F0.0
tp4473
bag397
(F0.0
F0.0
F0.0
tp4474
Rp4475
((dp4476
F0.0
F0.0
F0.0
tp4477
bag397
(F0.0
F0.0
F0.0
tp4478
Rp4479
((dp4480
F0.0
F0.0
F0.0
tp4481
bag397
(F0.0
F0.0
F0.0
tp4482
Rp4483
((dp4484
F0.0
F0.0
F0.0
tp4485
bag397
(F0.0
F0.0
F0.0
tp4486
Rp4487
((dp4488
F0.0
F0.0
F0.0
tp4489
bag397
(F0.0
F0.0
F0.0
tp4490
Rp4491
((dp4492
F0.0
F0.0
F0.0
tp4493
bag397
(F0.0
F0.0
F0.0
tp4494
Rp4495
((dp4496
F0.0
F0.0
F0.0
tp4497
bag397
(F0.0
F0.0
F0.0
tp4498
Rp4499
((dp4500
F0.0
F0.0
F0.0
tp4501
bag397
(F0.0
F0.0
F0.0
tp4502
Rp4503
((dp4504
F0.0
F0.0
F0.0
tp4505
bag397
(F0.0
F0.0
F0.0
tp4506
Rp4507
((dp4508
F0.0
F0.0
F0.0
tp4509
bag397
(F0.0
F0.0
F0.0
tp4510
Rp4511
((dp4512
F0.0
F0.0
F0.0
tp4513
bag397
(F0.0
F0.0
F0.0
tp4514
Rp4515
((dp4516
F0.0
F0.0
F0.0
tp4517
bag397
(F0.0
F0.0
F0.0
tp4518
Rp4519
((dp4520
F0.0
F0.0
F0.0
tp4521
bag397
(F0.0
F0.0
F0.0
tp4522
Rp4523
((dp4524
F0.0
F0.0
F0.0
tp4525
bag397
(F0.0
F0.0
F0.0
tp4526
Rp4527
((dp4528
F0.0
F0.0
F0.0
tp4529
bag397
(F0.0
F0.0
F0.0
tp4530
Rp4531
((dp4532
F0.0
F0.0
F0.0
tp4533
bag397
(F0.0
F0.0
F0.0
tp4534
Rp4535
((dp4536
F0.0
F0.0
F0.0
tp4537
bag397
(F0.0
F0.0
F0.0
tp4538
Rp4539
((dp4540
F0.0
F0.0
F0.0
tp4541
bag397
(F0.0
F0.0
F0.0
tp4542
Rp4543
((dp4544
F0.0
F0.0
F0.0
tp4545
bag397
(F0.0
F0.0
F0.0
tp4546
Rp4547
((dp4548
F0.0
F0.0
F0.0
tp4549
bag397
(F0.0
F0.0
F0.0
tp4550
Rp4551
((dp4552
F0.0
F0.0
F0.0
tp4553
bag397
(F0.0
F0.0
F0.0
tp4554
Rp4555
((dp4556
F0.0
F0.0
F0.0
tp4557
bag397
(F0.0
F0.0
F0.0
tp4558
Rp4559
((dp4560
F0.0
F0.0
F0.0
tp4561
bag397
(F0.0
F0.0
F0.0
tp4562
Rp4563
((dp4564
F0.0
F0.0
F0.0
tp4565
bag397
(F0.0
F0.0
F0.0
tp4566
Rp4567
((dp4568
F0.0
F0.0
F0.0
tp4569
bag397
(F0.0
F0.0
F0.0
tp4570
Rp4571
((dp4572
F0.0
F0.0
F0.0
tp4573
bag397
(F0.0
F0.0
F0.0
tp4574
Rp4575
((dp4576
F0.0
F0.0
F0.0
tp4577
bag397
(F0.0
F0.0
F0.0
tp4578
Rp4579
((dp4580
F0.0
F0.0
F0.0
tp4581
bag397
(F0.0
F0.0
F0.0
tp4582
Rp4583
((dp4584
F0.0
F0.0
F0.0
tp4585
bag397
(F0.0
F0.0
F0.0
tp4586
Rp4587
((dp4588
F0.0
F0.0
F0.0
tp4589
bag397
(F0.0
F0.0
F0.0
tp4590
Rp4591
((dp4592
F0.0
F0.0
F0.0
tp4593
bag397
(F0.0
F0.0
F0.0
tp4594
Rp4595
((dp4596
F0.0
F0.0
F0.0
tp4597
bag397
(F0.0
F0.0
F0.0
tp4598
Rp4599
((dp4600
F0.0
F0.0
F0.0
tp4601
bag397
(F0.0
F0.0
F0.0
tp4602
Rp4603
((dp4604
F0.0
F0.0
F0.0
tp4605
bag397
(F0.0
F0.0
F0.0
tp4606
Rp4607
((dp4608
F0.0
F0.0
F0.0
tp4609
bag397
(F0.0
F0.0
F0.0
tp4610
Rp4611
((dp4612
F0.0
F0.0
F0.0
tp4613
bag397
(F0.0
F0.0
F0.0
tp4614
Rp4615
((dp4616
F0.0
F0.0
F0.0
tp4617
bag397
(F0.0
F0.0
F0.0
tp4618
Rp4619
((dp4620
F0.0
F0.0
F0.0
tp4621
bag397
(F0.0
F0.0
F0.0
tp4622
Rp4623
((dp4624
F0.0
F0.0
F0.0
tp4625
bag397
(F0.0
F0.0
F0.0
tp4626
Rp4627
((dp4628
F0.0
F0.0
F0.0
tp4629
bag397
(F0.0
F0.0
F0.0
tp4630
Rp4631
((dp4632
F0.0
F0.0
F0.0
tp4633
bag397
(F0.0
F0.0
F0.0
tp4634
Rp4635
((dp4636
F0.0
F0.0
F0.0
tp4637
bag397
(F0.0
F0.0
F0.0
tp4638
Rp4639
((dp4640
F0.0
F0.0
F0.0
tp4641
bag397
(F0.0
F0.0
F0.0
tp4642
Rp4643
((dp4644
F0.0
F0.0
F0.0
tp4645
bag397
(F0.0
F0.0
F0.0
tp4646
Rp4647
((dp4648
F0.0
F0.0
F0.0
tp4649
bag397
(F0.0
F0.0
F0.0
tp4650
Rp4651
((dp4652
F0.0
F0.0
F0.0
tp4653
bag397
(F0.0
F0.0
F0.0
tp4654
Rp4655
((dp4656
F0.0
F0.0
F0.0
tp4657
bag397
(F0.0
F0.0
F0.0
tp4658
Rp4659
((dp4660
F0.0
F0.0
F0.0
tp4661
bag397
(F0.0
F0.0
F0.0
tp4662
Rp4663
((dp4664
F0.0
F0.0
F0.0
tp4665
bag397
(F0.0
F0.0
F0.0
tp4666
Rp4667
((dp4668
F0.0
F0.0
F0.0
tp4669
bag397
(F0.0
F0.0
F0.0
tp4670
Rp4671
((dp4672
F0.0
F0.0
F0.0
tp4673
bag397
(F0.0
F0.0
F0.0
tp4674
Rp4675
((dp4676
F0.0
F0.0
F0.0
tp4677
bag397
(F0.0
F0.0
F0.0
tp4678
Rp4679
((dp4680
F0.0
F0.0
F0.0
tp4681
bag397
(F0.0
F0.0
F0.0
tp4682
Rp4683
((dp4684
F0.0
F0.0
F0.0
tp4685
bag397
(F0.0
F0.0
F0.0
tp4686
Rp4687
((dp4688
F0.0
F0.0
F0.0
tp4689
bag397
(F0.0
F0.0
F0.0
tp4690
Rp4691
((dp4692
F0.0
F0.0
F0.0
tp4693
bag397
(F0.0
F0.0
F0.0
tp4694
Rp4695
((dp4696
F0.0
F0.0
F0.0
tp4697
bag397
(F0.0
F0.0
F0.0
tp4698
Rp4699
((dp4700
F0.0
F0.0
F0.0
tp4701
bag397
(F0.0
F0.0
F0.0
tp4702
Rp4703
((dp4704
F0.0
F0.0
F0.0
tp4705
bag397
(F0.0
F0.0
F0.0
tp4706
Rp4707
((dp4708
F0.0
F0.0
F0.0
tp4709
bag397
(F0.0
F0.0
F0.0
tp4710
Rp4711
((dp4712
F0.0
F0.0
F0.0
tp4713
bag397
(F0.0
F0.0
F0.0
tp4714
Rp4715
((dp4716
F0.0
F0.0
F0.0
tp4717
bag397
(F0.0
F0.0
F0.0
tp4718
Rp4719
((dp4720
F0.0
F0.0
F0.0
tp4721
bag397
(F0.0
F0.0
F0.0
tp4722
Rp4723
((dp4724
F0.0
F0.0
F0.0
tp4725
bag397
(F0.0
F0.0
F0.0
tp4726
Rp4727
((dp4728
F0.0
F0.0
F0.0
tp4729
bag397
(F0.0
F0.0
F0.0
tp4730
Rp4731
((dp4732
F0.0
F0.0
F0.0
tp4733
bag397
(F0.0
F0.0
F0.0
tp4734
Rp4735
((dp4736
F0.0
F0.0
F0.0
tp4737
bag397
(F0.0
F0.0
F0.0
tp4738
Rp4739
((dp4740
F0.0
F0.0
F0.0
tp4741
bag397
(F0.0
F0.0
F0.0
tp4742
Rp4743
((dp4744
F0.0
F0.0
F0.0
tp4745
bag397
(F0.0
F0.0
F0.0
tp4746
Rp4747
((dp4748
F0.0
F0.0
F0.0
tp4749
bag397
(F0.0
F0.0
F0.0
tp4750
Rp4751
((dp4752
F0.0
F0.0
F0.0
tp4753
bag397
(F0.0
F0.0
F0.0
tp4754
Rp4755
((dp4756
F0.0
F0.0
F0.0
tp4757
bag397
(F0.0
F0.0
F0.0
tp4758
Rp4759
((dp4760
F0.0
F0.0
F0.0
tp4761
bag397
(F0.0
F0.0
F0.0
tp4762
Rp4763
((dp4764
F0.0
F0.0
F0.0
tp4765
bag397
(F0.0
F0.0
F0.0
tp4766
Rp4767
((dp4768
F0.0
F0.0
F0.0
tp4769
bag397
(F0.0
F0.0
F0.0
tp4770
Rp4771
((dp4772
F0.0
F0.0
F0.0
tp4773
bag397
(F0.0
F0.0
F0.0
tp4774
Rp4775
((dp4776
F0.0
F0.0
F0.0
tp4777
bag397
(F0.0
F0.0
F0.0
tp4778
Rp4779
((dp4780
F0.0
F0.0
F0.0
tp4781
bag397
(F0.0
F0.0
F0.0
tp4782
Rp4783
((dp4784
F0.0
F0.0
F0.0
tp4785
bag397
(F0.0
F0.0
F0.0
tp4786
Rp4787
((dp4788
F0.0
F0.0
F0.0
tp4789
bag397
(F0.0
F0.0
F0.0
tp4790
Rp4791
((dp4792
F0.0
F0.0
F0.0
tp4793
bag397
(F0.0
F0.0
F0.0
tp4794
Rp4795
((dp4796
F0.0
F0.0
F0.0
tp4797
bag397
(F0.0
F0.0
F0.0
tp4798
Rp4799
((dp4800
F0.0
F0.0
F0.0
tp4801
bag397
(F0.0
F0.0
F0.0
tp4802
Rp4803
((dp4804
F0.0
F0.0
F0.0
tp4805
bag397
(F0.0
F0.0
F0.0
tp4806
Rp4807
((dp4808
F0.0
F0.0
F0.0
tp4809
bag397
(F0.0
F0.0
F0.0
tp4810
Rp4811
((dp4812
F0.0
F0.0
F0.0
tp4813
bag397
(F0.0
F0.0
F0.0
tp4814
Rp4815
((dp4816
F0.0
F0.0
F0.0
tp4817
bag397
(F0.0
F0.0
F0.0
tp4818
Rp4819
((dp4820
F0.0
F0.0
F0.0
tp4821
bag397
(F0.0
F0.0
F0.0
tp4822
Rp4823
((dp4824
F0.0
F0.0
F0.0
tp4825
bag397
(F0.0
F0.0
F0.0
tp4826
Rp4827
((dp4828
F0.0
F0.0
F0.0
tp4829
bag397
(F0.0
F0.0
F0.0
tp4830
Rp4831
((dp4832
F0.0
F0.0
F0.0
tp4833
bag397
(F0.0
F0.0
F0.0
tp4834
Rp4835
((dp4836
F0.0
F0.0
F0.0
tp4837
bag397
(F0.0
F0.0
F0.0
tp4838
Rp4839
((dp4840
F0.0
F0.0
F0.0
tp4841
bag397
(F0.0
F0.0
F0.0
tp4842
Rp4843
((dp4844
F0.0
F0.0
F0.0
tp4845
bag397
(F0.0
F0.0
F0.0
tp4846
Rp4847
((dp4848
F0.0
F0.0
F0.0
tp4849
bag397
(F0.0
F0.0
F0.0
tp4850
Rp4851
((dp4852
F0.0
F0.0
F0.0
tp4853
bag397
(F0.0
F0.0
F0.0
tp4854
Rp4855
((dp4856
F0.0
F0.0
F0.0
tp4857
bag397
(F0.0
F0.0
F0.0
tp4858
Rp4859
((dp4860
F0.0
F0.0
F0.0
tp4861
bag397
(F0.0
F0.0
F0.0
tp4862
Rp4863
((dp4864
F0.0
F0.0
F0.0
tp4865
bag397
(F0.0
F0.0
F0.0
tp4866
Rp4867
((dp4868
F0.0
F0.0
F0.0
tp4869
bag397
(F0.0
F0.0
F0.0
tp4870
Rp4871
((dp4872
F0.0
F0.0
F0.0
tp4873
bag397
(F0.0
F0.0
F0.0
tp4874
Rp4875
((dp4876
F0.0
F0.0
F0.0
tp4877
bag397
(F0.0
F0.0
F0.0
tp4878
Rp4879
((dp4880
F0.0
F0.0
F0.0
tp4881
bag397
(F0.0
F0.0
F0.0
tp4882
Rp4883
((dp4884
F0.0
F0.0
F0.0
tp4885
bag397
(F0.0
F0.0
F0.0
tp4886
Rp4887
((dp4888
F0.0
F0.0
F0.0
tp4889
bag397
(F0.0
F0.0
F0.0
tp4890
Rp4891
((dp4892
F0.0
F0.0
F0.0
tp4893
bag397
(F0.0
F0.0
F0.0
tp4894
Rp4895
((dp4896
F0.0
F0.0
F0.0
tp4897
bag397
(F0.0
F0.0
F0.0
tp4898
Rp4899
((dp4900
F0.0
F0.0
F0.0
tp4901
bag397
(F0.0
F0.0
F0.0
tp4902
Rp4903
((dp4904
F0.0
F0.0
F0.0
tp4905
bag397
(F0.0
F0.0
F0.0
tp4906
Rp4907
((dp4908
F0.0
F0.0
F0.0
tp4909
bag397
(F0.0
F0.0
F0.0
tp4910
Rp4911
((dp4912
F0.0
F0.0
F0.0
tp4913
bag397
(F0.0
F0.0
F0.0
tp4914
Rp4915
((dp4916
F0.0
F0.0
F0.0
tp4917
bag397
(F0.0
F0.0
F0.0
tp4918
Rp4919
((dp4920
F0.0
F0.0
F0.0
tp4921
bag397
(F0.0
F0.0
F0.0
tp4922
Rp4923
((dp4924
F0.0
F0.0
F0.0
tp4925
bag397
(F0.0
F0.0
F0.0
tp4926
Rp4927
((dp4928
F0.0
F0.0
F0.0
tp4929
bag397
(F0.0
F0.0
F0.0
tp4930
Rp4931
((dp4932
F0.0
F0.0
F0.0
tp4933
bag397
(F0.0
F0.0
F0.0
tp4934
Rp4935
((dp4936
F0.0
F0.0
F0.0
tp4937
bag397
(F0.0
F0.0
F0.0
tp4938
Rp4939
((dp4940
F0.0
F0.0
F0.0
tp4941
bag397
(F0.0
F0.0
F0.0
tp4942
Rp4943
((dp4944
F0.0
F0.0
F0.0
tp4945
bag397
(F0.0
F0.0
F0.0
tp4946
Rp4947
((dp4948
F0.0
F0.0
F0.0
tp4949
bag397
(F0.0
F0.0
F0.0
tp4950
Rp4951
((dp4952
F0.0
F0.0
F0.0
tp4953
bag397
(F0.0
F0.0
F0.0
tp4954
Rp4955
((dp4956
F0.0
F0.0
F0.0
tp4957
bag397
(F0.0
F0.0
F0.0
tp4958
Rp4959
((dp4960
F0.0
F0.0
F0.0
tp4961
bag397
(F0.0
F0.0
F0.0
tp4962
Rp4963
((dp4964
F0.0
F0.0
F0.0
tp4965
bag397
(F0.0
F0.0
F0.0
tp4966
Rp4967
((dp4968
F0.0
F0.0
F0.0
tp4969
bag397
(F0.0
F0.0
F0.0
tp4970
Rp4971
((dp4972
F0.0
F0.0
F0.0
tp4973
bag397
(F0.0
F0.0
F0.0
tp4974
Rp4975
((dp4976
F0.0
F0.0
F0.0
tp4977
bag397
(F0.0
F0.0
F0.0
tp4978
Rp4979
((dp4980
F0.0
F0.0
F0.0
tp4981
bag397
(F0.0
F0.0
F0.0
tp4982
Rp4983
((dp4984
F0.0
F0.0
F0.0
tp4985
bag397
(F0.0
F0.0
F0.0
tp4986
Rp4987
((dp4988
F0.0
F0.0
F0.0
tp4989
bag397
(F0.0
F0.0
F0.0
tp4990
Rp4991
((dp4992
F0.0
F0.0
F0.0
tp4993
bag397
(F0.0
F0.0
F0.0
tp4994
Rp4995
((dp4996
F0.0
F0.0
F0.0
tp4997
bag397
(F0.0
F0.0
F0.0
tp4998
Rp4999
((dp5000
F0.0
F0.0
F0.0
tp5001
bag397
(F0.0
F0.0
F0.0
tp5002
Rp5003
((dp5004
F0.0
F0.0
F0.0
tp5005
bag397
(F0.0
F0.0
F0.0
tp5006
Rp5007
((dp5008
F0.0
F0.0
F0.0
tp5009
bag397
(F0.0
F0.0
F0.0
tp5010
Rp5011
((dp5012
F0.0
F0.0
F0.0
tp5013
bag397
(F0.0
F0.0
F0.0
tp5014
Rp5015
((dp5016
F0.0
F0.0
F0.0
tp5017
bag397
(F0.0
F0.0
F0.0
tp5018
Rp5019
((dp5020
F0.0
F0.0
F0.0
tp5021
bag397
(F0.0
F0.0
F0.0
tp5022
Rp5023
((dp5024
F0.0
F0.0
F0.0
tp5025
bag397
(F0.0
F0.0
F0.0
tp5026
Rp5027
((dp5028
F0.0
F0.0
F0.0
tp5029
bag397
(F0.0
F0.0
F0.0
tp5030
Rp5031
((dp5032
F0.0
F0.0
F0.0
tp5033
bag397
(F0.0
F0.0
F0.0
tp5034
Rp5035
((dp5036
F0.0
F0.0
F0.0
tp5037
bag397
(F0.0
F0.0
F0.0
tp5038
Rp5039
((dp5040
F0.0
F0.0
F0.0
tp5041
bag397
(F0.0
F0.0
F0.0
tp5042
Rp5043
((dp5044
F0.0
F0.0
F0.0
tp5045
bag397
(F0.0
F0.0
F0.0
tp5046
Rp5047
((dp5048
F0.0
F0.0
F0.0
tp5049
bag397
(F0.0
F0.0
F0.0
tp5050
Rp5051
((dp5052
F0.0
F0.0
F0.0
tp5053
bag397
(F0.0
F0.0
F0.0
tp5054
Rp5055
((dp5056
F0.0
F0.0
F0.0
tp5057
bag397
(F0.0
F0.0
F0.0
tp5058
Rp5059
((dp5060
F0.0
F0.0
F0.0
tp5061
bag397
(F0.0
F0.0
F0.0
tp5062
Rp5063
((dp5064
F0.0
F0.0
F0.0
tp5065
bag397
(F0.0
F0.0
F0.0
tp5066
Rp5067
((dp5068
F0.0
F0.0
F0.0
tp5069
bag397
(F0.0
F0.0
F0.0
tp5070
Rp5071
((dp5072
F0.0
F0.0
F0.0
tp5073
bag397
(F0.0
F0.0
F0.0
tp5074
Rp5075
((dp5076
F0.0
F0.0
F0.0
tp5077
bag397
(F0.0
F0.0
F0.0
tp5078
Rp5079
((dp5080
F0.0
F0.0
F0.0
tp5081
bag397
(F0.0
F0.0
F0.0
tp5082
Rp5083
((dp5084
F0.0
F0.0
F0.0
tp5085
bag397
(F0.0
F0.0
F0.0
tp5086
Rp5087
((dp5088
F0.0
F0.0
F0.0
tp5089
bag397
(F0.0
F0.0
F0.0
tp5090
Rp5091
((dp5092
F0.0
F0.0
F0.0
tp5093
bag397
(F0.0
F0.0
F0.0
tp5094
Rp5095
((dp5096
F0.0
F0.0
F0.0
tp5097
bag397
(F0.0
F0.0
F0.0
tp5098
Rp5099
((dp5100
F0.0
F0.0
F0.0
tp5101
bag397
(F0.0
F0.0
F0.0
tp5102
Rp5103
((dp5104
F0.0
F0.0
F0.0
tp5105
bag397
(F0.0
F0.0
F0.0
tp5106
Rp5107
((dp5108
F0.0
F0.0
F0.0
tp5109
bag397
(F0.0
F0.0
F0.0
tp5110
Rp5111
((dp5112
F0.0
F0.0
F0.0
tp5113
bag397
(F0.0
F0.0
F0.0
tp5114
Rp5115
((dp5116
F0.0
F0.0
F0.0
tp5117
bag397
(F0.0
F0.0
F0.0
tp5118
Rp5119
((dp5120
F0.0
F0.0
F0.0
tp5121
bag397
(F0.0
F0.0
F0.0
tp5122
Rp5123
((dp5124
F0.0
F0.0
F0.0
tp5125
bag397
(F0.0
F0.0
F0.0
tp5126
Rp5127
((dp5128
F0.0
F0.0
F0.0
tp5129
bag397
(F0.0
F0.0
F0.0
tp5130
Rp5131
((dp5132
F0.0
F0.0
F0.0
tp5133
bag397
(F0.0
F0.0
F0.0
tp5134
Rp5135
((dp5136
F0.0
F0.0
F0.0
tp5137
bag397
(F0.0
F0.0
F0.0
tp5138
Rp5139
((dp5140
F0.0
F0.0
F0.0
tp5141
bag397
(F0.0
F0.0
F0.0
tp5142
Rp5143
((dp5144
F0.0
F0.0
F0.0
tp5145
bag397
(F0.0
F0.0
F0.0
tp5146
Rp5147
((dp5148
F0.0
F0.0
F0.0
tp5149
bag397
(F0.0
F0.0
F0.0
tp5150
Rp5151
((dp5152
F0.0
F0.0
F0.0
tp5153
bag397
(F0.0
F0.0
F0.0
tp5154
Rp5155
((dp5156
F0.0
F0.0
F0.0
tp5157
bag397
(F0.0
F0.0
F0.0
tp5158
Rp5159
((dp5160
F0.0
F0.0
F0.0
tp5161
bag397
(F0.0
F0.0
F0.0
tp5162
Rp5163
((dp5164
F0.0
F0.0
F0.0
tp5165
bag397
(F0.0
F0.0
F0.0
tp5166
Rp5167
((dp5168
F0.0
F0.0
F0.0
tp5169
bag397
(F0.0
F0.0
F0.0
tp5170
Rp5171
((dp5172
F0.0
F0.0
F0.0
tp5173
bag397
(F0.0
F0.0
F0.0
tp5174
Rp5175
((dp5176
F0.0
F0.0
F0.0
tp5177
bag397
(F0.0
F0.0
F0.0
tp5178
Rp5179
((dp5180
F0.0
F0.0
F0.0
tp5181
bag397
(F0.0
F0.0
F0.0
tp5182
Rp5183
((dp5184
F0.0
F0.0
F0.0
tp5185
bag397
(F0.0
F0.0
F0.0
tp5186
Rp5187
((dp5188
F0.0
F0.0
F0.0
tp5189
bag397
(F0.0
F0.0
F0.0
tp5190
Rp5191
((dp5192
F0.0
F0.0
F0.0
tp5193
bag397
(F0.0
F0.0
F0.0
tp5194
Rp5195
((dp5196
F0.0
F0.0
F0.0
tp5197
bag397
(F0.0
F0.0
F0.0
tp5198
Rp5199
((dp5200
F0.0
F0.0
F0.0
tp5201
bag397
(F0.0
F0.0
F0.0
tp5202
Rp5203
((dp5204
F0.0
F0.0
F0.0
tp5205
bag397
(F0.0
F0.0
F0.0
tp5206
Rp5207
((dp5208
F0.0
F0.0
F0.0
tp5209
bag397
(F0.0
F0.0
F0.0
tp5210
Rp5211
((dp5212
F0.0
F0.0
F0.0
tp5213
bag397
(F0.0
F0.0
F0.0
tp5214
Rp5215
((dp5216
F0.0
F0.0
F0.0
tp5217
bag397
(F0.0
F0.0
F0.0
tp5218
Rp5219
((dp5220
F0.0
F0.0
F0.0
tp5221
bag397
(F0.0
F0.0
F0.0
tp5222
Rp5223
((dp5224
F0.0
F0.0
F0.0
tp5225
bag397
(F0.0
F0.0
F0.0
tp5226
Rp5227
((dp5228
F0.0
F0.0
F0.0
tp5229
bag397
(F0.0
F0.0
F0.0
tp5230
Rp5231
((dp5232
F0.0
F0.0
F0.0
tp5233
bag397
(F0.0
F0.0
F0.0
tp5234
Rp5235
((dp5236
F0.0
F0.0
F0.0
tp5237
bag397
(F0.0
F0.0
F0.0
tp5238
Rp5239
((dp5240
F0.0
F0.0
F0.0
tp5241
bag397
(F0.0
F0.0
F0.0
tp5242
Rp5243
((dp5244
F0.0
F0.0
F0.0
tp5245
bag397
(F0.0
F0.0
F0.0
tp5246
Rp5247
((dp5248
F0.0
F0.0
F0.0
tp5249
bag397
(F0.0
F0.0
F0.0
tp5250
Rp5251
((dp5252
F0.0
F0.0
F0.0
tp5253
bag397
(F0.0
F0.0
F0.0
tp5254
Rp5255
((dp5256
F0.0
F0.0
F0.0
tp5257
bag397
(F0.0
F0.0
F0.0
tp5258
Rp5259
((dp5260
F0.0
F0.0
F0.0
tp5261
bag397
(F0.0
F0.0
F0.0
tp5262
Rp5263
((dp5264
F0.0
F0.0
F0.0
tp5265
bag397
(F0.0
F0.0
F0.0
tp5266
Rp5267
((dp5268
F0.0
F0.0
F0.0
tp5269
bag397
(F0.0
F0.0
F0.0
tp5270
Rp5271
((dp5272
F0.0
F0.0
F0.0
tp5273
bag397
(F0.0
F0.0
F0.0
tp5274
Rp5275
((dp5276
F0.0
F0.0
F0.0
tp5277
bag397
(F0.0
F0.0
F0.0
tp5278
Rp5279
((dp5280
F0.0
F0.0
F0.0
tp5281
bag397
(F0.0
F0.0
F0.0
tp5282
Rp5283
((dp5284
F0.0
F0.0
F0.0
tp5285
bag397
(F0.0
F0.0
F0.0
tp5286
Rp5287
((dp5288
F0.0
F0.0
F0.0
tp5289
bag397
(F0.0
F0.0
F0.0
tp5290
Rp5291
((dp5292
F0.0
F0.0
F0.0
tp5293
bag397
(F0.0
F0.0
F0.0
tp5294
Rp5295
((dp5296
F0.0
F0.0
F0.0
tp5297
bag397
(F0.0
F0.0
F0.0
tp5298
Rp5299
((dp5300
F0.0
F0.0
F0.0
tp5301
bag397
(F0.0
F0.0
F0.0
tp5302
Rp5303
((dp5304
F0.0
F0.0
F0.0
tp5305
bag397
(F0.0
F0.0
F0.0
tp5306
Rp5307
((dp5308
F0.0
F0.0
F0.0
tp5309
bag397
(F0.0
F0.0
F0.0
tp5310
Rp5311
((dp5312
F0.0
F0.0
F0.0
tp5313
bag397
(F0.0
F0.0
F0.0
tp5314
Rp5315
((dp5316
F0.0
F0.0
F0.0
tp5317
bag397
(F0.0
F0.0
F0.0
tp5318
Rp5319
((dp5320
F0.0
F0.0
F0.0
tp5321
bag397
(F0.0
F0.0
F0.0
tp5322
Rp5323
((dp5324
F0.0
F0.0
F0.0
tp5325
bag397
(F0.0
F0.0
F0.0
tp5326
Rp5327
((dp5328
F0.0
F0.0
F0.0
tp5329
bag397
(F0.0
F0.0
F0.0
tp5330
Rp5331
((dp5332
F0.0
F0.0
F0.0
tp5333
bag397
(F0.0
F0.0
F0.0
tp5334
Rp5335
((dp5336
F0.0
F0.0
F0.0
tp5337
bag397
(F0.0
F0.0
F0.0
tp5338
Rp5339
((dp5340
F0.0
F0.0
F0.0
tp5341
bag397
(F0.0
F0.0
F0.0
tp5342
Rp5343
((dp5344
F0.0
F0.0
F0.0
tp5345
bag397
(F0.0
F0.0
F0.0
tp5346
Rp5347
((dp5348
F0.0
F0.0
F0.0
tp5349
bag397
(F0.0
F0.0
F0.0
tp5350
Rp5351
((dp5352
F0.0
F0.0
F0.0
tp5353
bag397
(F0.0
F0.0
F0.0
tp5354
Rp5355
((dp5356
F0.0
F0.0
F0.0
tp5357
bag397
(F0.0
F0.0
F0.0
tp5358
Rp5359
((dp5360
F0.0
F0.0
F0.0
tp5361
bag397
(F0.0
F0.0
F0.0
tp5362
Rp5363
((dp5364
F0.0
F0.0
F0.0
tp5365
bag397
(F0.0
F0.0
F0.0
tp5366
Rp5367
((dp5368
F0.0
F0.0
F0.0
tp5369
bag397
(F0.0
F0.0
F0.0
tp5370
Rp5371
((dp5372
F0.0
F0.0
F0.0
tp5373
bag397
(F0.0
F0.0
F0.0
tp5374
Rp5375
((dp5376
F0.0
F0.0
F0.0
tp5377
bag397
(F0.0
F0.0
F0.0
tp5378
Rp5379
((dp5380
F0.0
F0.0
F0.0
tp5381
bag397
(F0.0
F0.0
F0.0
tp5382
Rp5383
((dp5384
F0.0
F0.0
F0.0
tp5385
bag397
(F0.0
F0.0
F0.0
tp5386
Rp5387
((dp5388
F0.0
F0.0
F0.0
tp5389
bag397
(F0.0
F0.0
F0.0
tp5390
Rp5391
((dp5392
F0.0
F0.0
F0.0
tp5393
bag397
(F0.0
F0.0
F0.0
tp5394
Rp5395
((dp5396
F0.0
F0.0
F0.0
tp5397
bag397
(F0.0
F0.0
F0.0
tp5398
Rp5399
((dp5400
F0.0
F0.0
F0.0
tp5401
bag397
(F0.0
F0.0
F0.0
tp5402
Rp5403
((dp5404
F0.0
F0.0
F0.0
tp5405
bag397
(F0.0
F0.0
F0.0
tp5406
Rp5407
((dp5408
F0.0
F0.0
F0.0
tp5409
bag397
(F0.0
F0.0
F0.0
tp5410
Rp5411
((dp5412
F0.0
F0.0
F0.0
tp5413
bag397
(F0.0
F0.0
F0.0
tp5414
Rp5415
((dp5416
F0.0
F0.0
F0.0
tp5417
bag397
(F0.0
F0.0
F0.0
tp5418
Rp5419
((dp5420
F0.0
F0.0
F0.0
tp5421
bag397
(F0.0
F0.0
F0.0
tp5422
Rp5423
((dp5424
F0.0
F0.0
F0.0
tp5425
bag397
(F0.0
F0.0
F0.0
tp5426
Rp5427
((dp5428
F0.0
F0.0
F0.0
tp5429
bag397
(F0.0
F0.0
F0.0
tp5430
Rp5431
((dp5432
F0.0
F0.0
F0.0
tp5433
bag397
(F0.0
F0.0
F0.0
tp5434
Rp5435
((dp5436
F0.0
F0.0
F0.0
tp5437
bag397
(F0.0
F0.0
F0.0
tp5438
Rp5439
((dp5440
F0.0
F0.0
F0.0
tp5441
bag397
(F0.0
F0.0
F0.0
tp5442
Rp5443
((dp5444
F0.0
F0.0
F0.0
tp5445
bag397
(F0.0
F0.0
F0.0
tp5446
Rp5447
((dp5448
F0.0
F0.0
F0.0
tp5449
bag397
(F0.0
F0.0
F0.0
tp5450
Rp5451
((dp5452
F0.0
F0.0
F0.0
tp5453
bag397
(F0.0
F0.0
F0.0
tp5454
Rp5455
((dp5456
F0.0
F0.0
F0.0
tp5457
bag397
(F0.0
F0.0
F0.0
tp5458
Rp5459
((dp5460
F0.0
F0.0
F0.0
tp5461
bag397
(F0.0
F0.0
F0.0
tp5462
Rp5463
((dp5464
F0.0
F0.0
F0.0
tp5465
bag397
(F0.0
F0.0
F0.0
tp5466
Rp5467
((dp5468
F0.0
F0.0
F0.0
tp5469
bag397
(F0.0
F0.0
F0.0
tp5470
Rp5471
((dp5472
F0.0
F0.0
F0.0
tp5473
basb.